(lp0
Vcussed
p1
aVgaincustomers
p2
aVwifihotel
p3
aVbetch
p4
aVhsv
p5
aVwill1531
p6
aVhanging
p7
aVwoody
p8
aVcomically
p9
aVlocalized
p10
aVlooking
p11
aVgranting
p12
aVeligible
p13
aVsnowing
p14
aVunanswered
p15
aVrefunding
p16
aVcaned
p17
aVdemoted
p18
aVlord
p19
aVdelayedconnection
p20
aVpafe
p21
aVsaipan
p22
aVdigit
p23
aVdeli
p24
aVregional
p25
aVfargo
p26
aVappropriation
p27
aVyellow
p28
aVwerin
p29
aVscreaming
p30
aVpasengers
p31
aVdisturb
p32
aVbasics
p33
aVinternally
p34
aVprize
p35
aVwednesday
p36
aVcommented
p37
aVcharter
p38
aVspecially
p39
aVtired
p40
aVevennotified
p41
aVnotbabysitters
p42
aVcomplainers
p43
aVpulse
p44
aVshrugging
p45
aVsailed
p46
aVfeck
p47
aVerrors
p48
aVmedically
p49
aVfingers
p50
aVftmyers
p51
aVbonuses
p52
aVincreasing
p53
aVadmiral
p54
aVblackhistorymonth
p55
aVspecialist
p56
aVhero
p57
aVreporter
p58
aVherb
p59
aVcanadaair
p60
aVbyebyeusairline
p61
aVaffiliates
p62
aVreported
p63
aVchina
p64
aVdorm
p65
aVaffiliated
p66
aVconversational
p67
aVkids
p68
aValwaysdelayedonunited
p69
aVsoul
p70
aVelaborate
p71
aVdeferring
p72
aVreports
p73
aVlingo
p74
aVchking
p75
aVmilitary
p76
aVpullin
p77
aVspotty
p78
aVbrownsville
p79
aVpairings
p80
aVcriticism
p81
aVappropriately
p82
aVmagically
p83
aVground
p84
aVexplained
p85
aVreplace
p86
aVbrought
p87
aVtxt
p88
aVhoping
p89
aVlnded
p90
aVspoke
p91
aVschiphol
p92
aVdispatcher
p93
aVdnt
p94
aVmusic
p95
aVpassport
p96
aVstrike
p97
aVargg
p98
aVinpolite
p99
aVexpiring
p100
aVhury
p101
aVpaperwork
p102
aVholz
p103
aVholy
p104
aVrelax
p105
aVsuccessful
p106
aVbrings
p107
aVpasta
p108
aVhurt
p109
aVglass
p110
aVhole
p111
aVhold
p112
aVcircumstances
p113
aVlocked
p114
aVmarathon
p115
aVblade
p116
aVincompetentmanagers
p117
aVexample
p118
aVwellplayed
p119
aVowes
p120
aVorganized
p121
aVswivel
p122
aVdragons
p123
aVcaution
p124
aVreviewing
p125
aVitwasminttobe
p126
aVabsolute
p127
aVpreferably
p128
aVcomplaining
p129
aVhoo
p130
aVtravel
p131
aVdamage
p132
aVmachine
p133
aVhot
p134
aVhou
p135
aVhop
p136
aVgth239
p137
aVbeauty
p138
aVlekvhg
p139
aVmisunderstanding
p140
aVdinosaurs
p141
aVwrong
p142
aVhomewardbound
p143
aVreassess
p144
aVjwa
p145
aVextortion
p146
aVsiberia
p147
aVcalves
p148
aVhamsters
p149
aVeffective
p150
aVwins
p151
aVdiscontinued
p152
aVbaggage
p153
aVwing
p154
aVwind
p155
aVwine
p156
aVrestriction
p157
aVfeedback
p158
aVwelcomed
p159
aVvary
p160
aVpartnered
p161
aVawheelchair
p162
aVbarclays
p163
aVdisneyprincesshalfmarathon
p164
aVwelcomes
p165
aVfit
p166
aVdirectional
p167
aVlifeline
p168
aVbringing
p169
aVfix
p170
aVbaggagefail
p171
aVfib
p172
aVrescued
p173
aVhidden
p174
aVeasier
p175
aVconnex
p176
aVvouchers
p177
aVflipping
p178
aVvelcro
p179
aVschools
p180
aVcncled
p181
aVsilver
p182
aVsaddened
p183
aVrepresents
p184
aVqueues
p185
aVisdelayed
p186
aVfloridavacation
p187
aVdumps
p188
aVdisconnection
p189
aVpayton
p190
aVinterfering
p191
aVtoll
p192
aVflyquiet
p193
aVfinancial
p194
aVwillneverflywithyou
p195
aVseries
p196
aVallan
p197
aVupc
p198
aVmarcos
p199
aVmdw
p200
aVnotanymore
p201
aVrt
p202
aVru
p203
aVmisfortune
p204
aVtrending
p205
aVrr
p206
aVoprah
p207
aVwaive
p208
aVrx
p209
aVxw
p210
aVre
p211
aVencourage
p212
aVdsm
p213
aVjetbluefail
p214
aVsmh
p215
aVsmf
p216
aVrn
p217
aVengineer
p218
aVri
p219
aVsma
p220
aVairbus
p221
aVmedusafridays
p222
aVclarence
p223
aVassured
p224
aVsellout
p225
aVthreatened
p226
aVestimate
p227
aVstacy
p228
aVuniversally
p229
aVsys
p230
aVcompetes
p231
aVatc
p232
aVatl
p233
aVdiabetic
p234
aVath
p235
aVups
p236
aVsilicon
p237
aVshipped
p238
aVmusicians
p239
aVspeedy
p240
aVtempting
p241
aVatx
p242
aVclarita
p243
aVsubtlety
p244
aVmisplace
p245
aVchannels
p246
aVareyounew
p247
aVolds
p248
aVlister
p249
aVrsrv
p250
aVservice
p251
aVengagement
p252
aVtouting
p253
aVtruebluelove
p254
aVus1937
p255
aVgetmeoffthisplane
p256
aVlisted
p257
aVlegs
p258
aVranging
p259
aVlisten
p260
aVrewards
p261
aVdietcoke
p262
aVteamspirit
p263
aVgeneva
p264
aVcushions
p265
aVbeanie
p266
aVrectified
p267
aVpredictable
p268
aVlegally
p269
aVevil
p270
aVhorrible
p271
aVpanam
p272
aVtree
p273
aVshower
p274
aVme2make
p275
aVfeeling
p276
aVrecheck
p277
aVetihad
p278
aVboston
p279
aVuntrained
p280
aVcopa
p281
aVcorny
p282
aVoutoftouchwithreality
p283
aVdozen
p284
aVaffairs
p285
aVabsorber
p286
aVgoingforgreatnessfail
p287
aVperson
p288
aVresponsible
p289
aVokie
p290
aVrecommended
p291
aVcausing
p292
aVnocommunication
p293
aVbacktowinter
p294
aVdoors
p295
aVpns
p296
aVtransactions
p297
aVthrilled
p298
aVscrewing
p299
aVdoin
p300
aVvictoria
p301
aVsimplify
p302
aVmicrosecond
p303
aVblackmailed
p304
aVicloud
p305
aVorganization
p306
aVretaining
p307
aVsinger
p308
aVconnectfor
p309
aVantitrust
p310
aVemailing
p311
aVprofessor
p312
aVua992
p313
aVdetectors
p314
aVrotary
p315
aVmintalicious
p316
aVtech
p317
aVscream
p318
aVsaying
p319
aVd1mqf5
p320
aVdeparting
p321
aVrollaboard
p322
aVmeetings
p323
aVbonnie
p324
aVnominated
p325
aVundue
p326
aVreschedule
p327
aVparticipate
p328
aVhungary
p329
aVdeedee
p330
aVpriv
p331
aVhonalulu
p332
aVorleans
p333
aVreticketed
p334
aVbusy
p335
aVlayout
p336
aVment
p337
aVmenu
p338
aVwn4287
p339
aVpreboarding
p340
aVrico
p341
aVbush
p342
aVbliss
p343
aVrick
p344
aVrich
p345
aVrica
p346
aVplate
p347
aVairbus321seat14fproblems
p348
aVschooler
p349
aViata
p350
aVpocket
p351
aVfarmington
p352
aVagnt
p353
aVtips
p354
aVlmao
p355
aVnicely
p356
aVcoles
p357
aVpiggy
p358
aVrelease
p359
aVcometoaustin
p360
aVboarded
p361
aVcircling
p362
aVrespond
p363
aVblew
p364
aVservicedog
p365
aVmandatory
p366
aVdisaster
p367
aVfair
p368
aVjustwrong
p369
aVbranding
p370
aVnorush
p371
aVgoodnight
p372
aVresult
p373
aVfail
p374
aVtailwinds
p375
aVhammer
p376
aVbleh
p377
aVua1523
p378
aVlots
p379
aVrings
p380
aVlott
p381
aVmelissa
p382
aVyogurt
p383
aVglasgow
p384
aVua647
p385
aVextend
p386
aVnature
p387
aVrolled
p388
aVsmelled
p389
aVua649
p390
aVyousuck
p391
aVwtf
p392
aVdowngrade
p393
aVattendents
p394
aVpity
p395
aVaccident
p396
aVus626
p397
aVrunningonthreehoursofsleep
p398
aVcountry
p399
aVpits
p400
aVpitt
p401
aVdemanded
p402
aVplanned
p403
aVresending
p404
aVlogic
p405
aVpita
p406
aVreebooked
p407
aVlogin
p408
aVargue
p409
aVadapted
p410
aVjetbluesofly
p411
aVmortified
p412
aVirresponsible
p413
aVbestdressed
p414
aVaa919
p415
aVflypbi
p416
aVinfants
p417
aVgerne
p418
aVdiff
p419
aVfra
p420
aVangel
p421
aVpregame
p422
aVchrome
p423
aVfri
p424
aVfro
p425
aVfrm
p426
aVstartled
p427
aVprivilege
p428
aVassult
p429
aVjackass
p430
aVincompetent
p431
aVlife
p432
aVsydney
p433
aVeastern
p434
aVworker
p435
aVflt1727
p436
aVchild
p437
aVtokyomarathon2015
p438
aVspin
p439
aVchill
p440
aVoverflight
p441
aVangrycustomer
p442
aVsobewff
p443
aVcontingencies
p444
aVemploy
p445
aVunloading
p446
aVunempathetic
p447
aVremembering
p448
aVridiculously
p449
aVemplid
p450
aVcongratulation
p451
aVsurprises
p452
aVplayed
p453
aVletdown
p454
aVcharacterize
p455
aVlovejetblue
p456
aVus3645
p457
aVanticipating
p458
aVsmoothest
p459
aVtrusted
p460
aVtransformative
p461
aVdamaged
p462
aVuncvsduke
p463
aVhaiti
p464
aVsplit
p465
aVbabies
p466
aVbougth
p467
aVcouple
p468
aVeuropean
p469
aVfairly
p470
aVdirecting
p471
aVboiled
p472
aVtops
p473
aVworkforce
p474
aViflyalot
p475
aVownership
p476
aVsaidi
p477
aVjkf
p478
aVworstairlineever
p479
aVjedediah
p480
aVeagle
p481
aVcorporate
p482
aVopinions
p483
aVgolden
p484
aVsleepy
p485
aVbirmingham
p486
aVupfare
p487
aVportrayed
p488
aVprevious
p489
aVhah
p490
aVepitimeoffail
p491
aVhandshake
p492
aVenters
p493
aVus2118
p494
aVease
p495
aVezee
p496
aVeasy
p497
aVprison
p498
aVbna
p499
aVeast
p500
aVhat
p501
aVlgjw7b
p502
aVmediocre
p503
aVpossibly
p504
aVgameboy
p505
aVbirth
p506
aVbrokenpromises
p507
aVsliced
p508
aVremind
p509
aVfestivities
p510
aVsteps
p511
aVcrosswinds
p512
aVbobbi
p513
aVonlyinamerica
p514
aVwlcm
p515
aVbeneficial
p516
aVcrowd
p517
aVpeople
p518
aVweds
p519
aVcaptive
p520
aVpricediscrimination
p521
aVforeverr
p522
aVmultiple
p523
aVattendees
p524
aVump
p525
aVbottom
p526
aViwantmymoneyback
p527
aVpregnant
p528
aVcreative
p529
aVwitty
p530
aVfog
p531
aVumm
p532
aVlovesouthwest
p533
aVfoh
p534
aVshaker
p535
aVmalpensa
p536
aVsubstitutes
p537
aVlosing
p538
aVneverfails
p539
aVnoexcuses
p540
aVdollars
p541
aVgettingthirsty
p542
aVregretting
p543
aVstoked
p544
aVlacked
p545
aVua343
p546
aVslightly
p547
aVbusads
p548
aVraised
p549
aVmbj
p550
aVtheworstairlineever
p551
aVhoneymoon
p552
aVmoodlighting
p553
aVsoo
p554
aVson
p555
aVsop
p556
aVsos
p557
aVvalleys
p558
aVunitedairlinessuck
p559
aVwrap
p560
aVsox
p561
aVupgrademe
p562
aVmbr
p563
aVdonedeal
p564
aVmhtt
p565
aVwaits
p566
aValtitude
p567
aVconstantly
p568
aVavail
p569
aVspring
p570
aVresulted
p571
aVoverhead
p572
aVhowhardcanthatreallybe
p573
aVjana
p574
aVhappy
p575
aVdns
p576
aVdanbury
p577
aVoffer
p578
aVunderstandably
p579
aVpaypal
p580
aVevrytime
p581
aVnotifications
p582
aVhemisphere
p583
aVunderstandable
p584
aVfinnair
p585
aVsprinting
p586
aVhandily
p587
aVinside
p588
aVdevices
p589
aVconnectns
p590
aVnicest
p591
aVsmashed
p592
aVmighty
p593
aVwn3946
p594
aVpricing
p595
aVpassenger
p596
aVresched
p597
aVdisgrace
p598
aVdounotwantmybusiness
p599
aVcaucasity
p600
aVbagtag
p601
aVexist
p602
aVamericanairlines
p603
aVus624
p604
aVaiecraft
p605
aVcrutches
p606
aVrelay
p607
aVfloor
p608
aVsheesh
p609
aVrepublic
p610
aVdevelopers
p611
aVsmell
p612
aVroll
p613
aVunitedwithivy
p614
aVerj145
p615
aVintend
p616
aVramada
p617
aVoutage
p618
aVstealing
p619
aVtransported
p620
aVintent
p621
aVmiranda
p622
aVrolling
p623
aVnarayanan
p624
aVcongested
p625
aVnxt
p626
aVdomingo
p627
aVheretiredcustomer
p628
aVcustomerservice
p629
aVua3659
p630
aVottawa
p631
aVletsgohome
p632
aVpush
p633
aVdisorganization
p634
aVequalizer
p635
aVmeasurements
p636
aVcincinnati
p637
aVchain
p638
aVwhoever
p639
aVresources
p640
aVactivated
p641
aVallgood
p642
aVtke
p643
aVmdbeei
p644
aVskiing
p645
aVchair
p646
aVvet
p647
aVyourairlinesucks
p648
aVnbr1
p649
aVdelacy
p650
aVveg
p651
aVbicycles
p652
aVburlington
p653
aVfindurgrip
p654
aVcrated
p655
aVveterans
p656
aVicing
p657
aVjerk
p658
aVdoke
p659
aVchoice
p660
aVservicing
p661
aVstays
p662
aVexact
p663
aVminute
p664
aVsolves
p665
aVtear
p666
aVtroy
p667
aVleave
p668
aVsolved
p669
aVsettle
p670
aVteam
p671
aVloads
p672
aVunaware
p673
aVprevent
p674
aVsigh
p675
aVnaww
p676
aVsign
p677
aVshirts
p678
aVeducate
p679
aVcleanliness
p680
aVjeopardy
p681
aVcurrent
p682
aVfreaks
p683
aVfalling
p684
aVcrashing
p685
aVboost
p686
aVzrh
p687
aVua3882
p688
aVhonour
p689
aVfuneral
p690
aVunderstanding
p691
aVgladys
p692
aVsnack
p693
aVyards
p694
aVaddress
p695
aVbudweiserduels
p696
aVarvls
p697
aVsystemwide
p698
aVpassengers
p699
aVenroll
p700
aVbreathing
p701
aVredemption
p702
aVhotlanta
p703
aVbrilliant
p704
aVua871
p705
aVjetblueforever
p706
aVqueue
p707
aVaccomplished
p708
aVswitch2sbux
p709
aVmyers
p710
aVinconvience
p711
aVreclaim
p712
aVlove
p713
aVradish
p714
aVwhyjeff
p715
aVprefer
p716
aVlogical
p717
aVbloody
p718
aVlogically
p719
aVfake
p720
aVjamesasworth
p721
aVflagging
p722
aVaa3490
p723
aVcocktail
p724
aVwoof
p725
aVpositive
p726
aVangry
p727
aVworstflightexperienceever
p728
aVopposed
p729
aVwondering
p730
aVfilms
p731
aVscope
p732
aVloving
p733
aVconsoled
p734
aVafford
p735
aVapparent
p736
aVvalidity
p737
aVignorant
p738
aVrtrn
p739
aVeasiest
p740
aVbehalf
p741
aVvelour
p742
aVinvolve
p743
aVlowercase
p744
aVvalued
p745
aVlaguardia
p746
aVoriginally
p747
aVelevategold
p748
aVbedofroses
p749
aVpoorservice
p750
aVvalues
p751
aVslowness
p752
aVfollowing
p753
aVzippers
p754
aVpgashow
p755
aVua3466
p756
aVua3462
p757
aVawesome
p758
aVreqs
p759
aVoatmeal
p760
aVunanticipated
p761
aVallowed
p762
aVtgif
p763
aVstole
p764
aVevidently
p765
aVlistens
p766
aVhotelliving
p767
aVmonitoring
p768
aVwinter
p769
aVcustomerservicewin
p770
aVdivided
p771
aVs4
p772
aVthanking
p773
aVvancouver
p774
aVunitedairlines
p775
aVpossiable
p776
aVgrossed
p777
aVdivider
p778
aVpreciation
p779
aVedinburgh
p780
aVsnaps
p781
aVlaundry
p782
aVexplorer
p783
aVblasting
p784
aVspot
p785
aVlatte
p786
aVfueled
p787
aVdate
p788
aVsuck
p789
aVfilthy
p790
aVfrigidfriday
p791
aVstress
p792
aVoctavia
p793
aVcorrelate
p794
aVunitedworstever
p795
aVwheelchair
p796
aVsw
p797
aValittlebetter
p798
aVst
p799
aVsj
p800
aVtruck
p801
aVsm
p802
aVpackingayak
p803
aVpulled
p804
aVsf
p805
aVsd
p806
aVunsolicited
p807
aVwebpage
p808
aVunacceptable
p809
aVfeature
p810
aVprofessors
p811
aVhiring
p812
aVtore
p813
aVjdhadp
p814
aVdisconnect
p815
aVinternationally
p816
aVjim
p817
aVtroubles
p818
aVlouisville
p819
aVfaves
p820
aVaviv
p821
aVavis
p822
aVintl
p823
aVwebs
p824
aVoversize
p825
aVflysw
p826
aVlimbo
p827
aVinstantly
p828
aVapron
p829
aVsmarter
p830
aVattentiveness
p831
aVretrain
p832
aVrecords
p833
aVflight293
p834
aVarriving
p835
aVsorted
p836
aVcolleagues
p837
aVrunners
p838
aVonfleek
p839
aVce3k
p840
aVrevers
p841
aVquarter
p842
aVrepaired
p843
aVsmoothoperation
p844
aVvirginamerica
p845
aVreceipt
p846
aVirina
p847
aVnyfw
p848
aVsponsor
p849
aVentering
p850
aVsexually
p851
aVkeepitmovin
p852
aVcontainer
p853
aVhelpmeplease
p854
aVpatheticcx
p855
aVsquared
p856
aVdownhill
p857
aVseriously
p858
aVinvestigation
p859
aVinternet
p860
aVsuggesting
p861
aVformula
p862
aVkatie
p863
aVsuperiors
p864
aVdelayua53
p865
aVjustifythissupport
p866
aVquito
p867
aVwaitingsince
p868
aVmillion
p869
aVweblink
p870
aVoverheads
p871
aVdisrespect
p872
aVrecordings
p873
aVcomplicated
p874
aVbesides
p875
aVgrandma
p876
aVtraining
p877
aVbluetiful
p878
aVdisguised
p879
aVdunno
p880
aVspam
p881
aVprogramming
p882
aVprovidenciales
p883
aVaboard
p884
aVroutes
p885
aVrouter
p886
aVneglect
p887
aVhollymais
p888
aVsaving
p889
aVneworleans
p890
aVreveals
p891
aVspoken
p892
aVinnovacion
p893
aVbusinessmodel
p894
aVreopen
p895
aVua6136
p896
aVspecifically
p897
aVggqzqd
p898
aVspanish
p899
aVvote
p900
aVons
p901
aVtamara
p902
aVont
p903
aVconcert
p904
aVmqxc64
p905
aVwrath
p906
aVbite
p907
aVpleease
p908
aVrunways
p909
aVindicate
p910
aVfml
p911
aVshiver
p912
aVdraft
p913
aVtyping
p914
aVstructures
p915
aVwilliams
p916
aVruiningmy
p917
aVgofundme
p918
aVshawn
p919
aVproving
p920
aVveers
p921
aVridiculous
p922
aVsurgeryhelp
p923
aVrepresenting
p924
aVhopeidonotgetsick
p925
aVboyfriend
p926
aVua415
p927
aVcoats
p928
aVfedexed
p929
aVfuture
p930
aVsurprisingly
p931
aVrussia
p932
aVproactive
p933
aVaddressing
p934
aVillness
p935
aVsao
p936
aVsan
p937
aVsam
p938
aVsac
p939
aVargument
p940
aVwoaw
p941
aVsad
p942
aVgrnd
p943
aVtastes
p944
aVmiscnx
p945
aVsav
p946
aVsat
p947
aVua1481
p948
aVhawaiian
p949
aVcigarettes
p950
aVunsuitable
p951
aVaside
p952
aVinstructed
p953
aVnote
p954
aVjetbluefame
p955
aVachieving
p956
aVflightlanding
p957
aVdestroy
p958
aVhanding
p959
aVprinter
p960
aVoffload
p961
aVopposite
p962
aVpassengerslose
p963
aVdelayedovernight
p964
aVprinted
p965
aVremarks
p966
aVstreetwise
p967
aVinserted
p968
aVwinters
p969
aVarmrest
p970
aVolavarria
p971
aVaverage
p972
aVphil
p973
aVdrive
p974
aVcrooked
p975
aVamericanview
p976
aVredirected
p977
aVsalt
p978
aVsouthwestsucks
p979
aVb44
p980
aVwalking
p981
aVb46
p982
aVb40
p983
aVgrk13575m
p984
aVcommitments
p985
aVbright
p986
aVlly144
p987
aVinconsistent
p988
aVaggressive
p989
aVimagined
p990
aVslow
p991
aVgetmeouttahere
p992
aValavera
p993
aVcharac
p994
aVotis
p995
aVtears
p996
aVslog
p997
aVequipped
p998
aVoutrage
p999
aVposted
p1000
aVsteered
p1001
aVdispute
p1002
aVwhyyounoloveme
p1003
aVsuitcases
p1004
aVseemless
p1005
aVfreezing
p1006
aVtexasisclosed
p1007
aVdamageluggage
p1008
aVawaiting
p1009
aVprime
p1010
aVresource
p1011
aVaa1237
p1012
aVtiks
p1013
aVwakinginmemphis
p1014
aVborrow
p1015
aVabsurdly
p1016
aVworried
p1017
aVtryn
p1018
aVroger
p1019
aVwhenitsnowsitpours
p1020
aVliable
p1021
aVworries
p1022
aVsurgeries
p1023
aVxmas
p1024
aVvision
p1025
aVpoorcustumerservice
p1026
aVairfares
p1027
aVraeann
p1028
aVanyways
p1029
aVoverflowed
p1030
aVimpressions
p1031
aVsurgery
p1032
aVpqms
p1033
aVrefreshes
p1034
aVrefresher
p1035
aVjumped
p1036
aVrepresentatives
p1037
aVsponsorship
p1038
aVun
p1039
aVbureau
p1040
aVrefreshed
p1041
aVaffecting
p1042
aVteens
p1043
aVverification
p1044
aVinappropriately
p1045
aVpunta
p1046
aVmeelan
p1047
aVjobs
p1048
aVcnceld
p1049
aVscreen
p1050
aVsittingontheplane
p1051
aVconcentrate
p1052
aVawards
p1053
aVflightation
p1054
aVchoosekind
p1055
aVjets
p1056
aVoust
p1057
aVmans
p1058
aVconversed
p1059
aVjokers
p1060
aVflipped
p1061
aVloudly
p1062
aVcomm
p1063
aVflightled
p1064
aVbackpack
p1065
aVallowance
p1066
aVyearly
p1067
aVsouthwestrocks
p1068
aVtwin
p1069
aVsentinel
p1070
aVextinct
p1071
aVcud
p1072
aVfllight
p1073
aVboat
p1074
aVcaring
p1075
aVstretch
p1076
aVwest
p1077
aVlocally
p1078
aVairliner
p1079
aVairlines
p1080
aVbraving
p1081
aVcombined
p1082
aVletsworktogether
p1083
aVdemanding
p1084
aVflythefriendlyskies
p1085
aVlanes
p1086
aVgist
p1087
aVforevercold
p1088
aVthousand
p1089
aVnarita
p1090
aVwalmart
p1091
aVphotos
p1092
aVobserve
p1093
aVhashtag
p1094
aVwilco
p1095
aVformer
p1096
aVrunnin
p1097
aVshouldigetoutandpush
p1098
aVendlessly
p1099
aVconsultant
p1100
aVdeltanews
p1101
aVstraighten
p1102
aVhayes
p1103
aVoldseatnocushion
p1104
aVbarclay
p1105
aVshavon
p1106
aVpolicies
p1107
aVsituation
p1108
aVfm
p1109
aVive
p1110
aVstpatricksfoundation
p1111
aVpurse
p1112
aVbros
p1113
aVbumper
p1114
aVblah
p1115
aVnegroni
p1116
aVivr
p1117
aVtechnology
p1118
aVverified
p1119
aVflybetter
p1120
aVthreatens
p1121
aVverifies
p1122
aVyessir
p1123
aVcramming
p1124
aVbreakdown
p1125
aVwires
p1126
aVsingapore
p1127
aVlatrice
p1128
aVbirths
p1129
aVcarsl
p1130
aVcheers
p1131
aVwired
p1132
aVus1765
p1133
aVwpg
p1134
aVbooster
p1135
aVcosta
p1136
aVtracking
p1137
aVundefined
p1138
aVoverchging
p1139
aVk20
p1140
aVnothin
p1141
aVnodrinks
p1142
aVcosts
p1143
aVtrains
p1144
aVgrumpy
p1145
aVhubby
p1146
aVsummer
p1147
aVmorons
p1148
aVsteamed
p1149
aVnofunatall
p1150
aVdownn
p1151
aVslime
p1152
aVrest
p1153
aVinvalid
p1154
aVweekly
p1155
aVdeceiving
p1156
aVgrounded
p1157
aVbriefings
p1158
aVinstrument
p1159
aVfunctionality
p1160
aVdicks
p1161
aVskies
p1162
aVstarving
p1163
aVjeans
p1164
aVperiod
p1165
aVdark
p1166
aVawol
p1167
aVhigherandhigher
p1168
aVtraffic
p1169
aVdarn
p1170
aVworld
p1171
aVhabitrails
p1172
aVvague
p1173
aVdare
p1174
aVnaval
p1175
aVintel
p1176
aVstranger
p1177
aVua1297
p1178
aVgimme
p1179
aVoffenders
p1180
aVrevision
p1181
aVstationary
p1182
aVbankruptcies
p1183
aVlaissez
p1184
aVexplaining
p1185
aVpushy
p1186
aVa60
p1187
aVtvs
p1188
aVpascucci
p1189
aVua7985
p1190
aVflyus
p1191
aVdimensions
p1192
aVnoob
p1193
aVairserv
p1194
aVmemories
p1195
aVnoon
p1196
aVua1121
p1197
aVexit
p1198
aVforecasted
p1199
aVua1127
p1200
aVrefundable
p1201
aVcoffeemaker
p1202
aVrefer
p1203
aVaccessing
p1204
aVpower
p1205
aVintimate
p1206
aVmalfunctioning
p1207
aVretains
p1208
aVleadership
p1209
aVcontracts
p1210
aVthailand
p1211
aVprepared
p1212
aVexecutives
p1213
aVacc
p1214
aVexasperating
p1215
aVstone
p1216
aVnogearnotraining
p1217
aVpackage
p1218
aVindustry
p1219
aVfavorite
p1220
aVwens
p1221
aVacu
p1222
aVact
p1223
aVmean
p1224
aVburning
p1225
aVflawed
p1226
aVqro
p1227
aVfreaked
p1228
aVlively
p1229
aVhomeless
p1230
aVapologize
p1231
aVbadmgmt
p1232
aVtechnically
p1233
aVbubbly
p1234
aVjerks
p1235
aVhep
p1236
aVhey
p1237
aVslopes
p1238
aVheh
p1239
aVproject
p1240
aVcomplete
p1241
aVreps
p1242
aVflyingainteasy
p1243
aVunreliable
p1244
aVmde
p1245
aVbuying
p1246
aVabused
p1247
aVpull
p1248
aVrush
p1249
aVoctober
p1250
aVmonopoly
p1251
aVdamionflight4223
p1252
aVunveils
p1253
aVvaluables
p1254
aVdirty
p1255
aVcatsanddogslivingtogether
p1256
aVseverally
p1257
aVruss
p1258
aVdependents
p1259
aVtrips
p1260
aVmisery
p1261
aVaa
p1262
aVgone
p1263
aVac
p1264
aVgong
p1265
aVad
p1266
aVohk
p1267
aVexhausted
p1268
aVah
p1269
aVdoug
p1270
aVam
p1271
aVal
p1272
aVap
p1273
aVar
p1274
aVau
p1275
aVpregnantwithtwins
p1276
aVaw
p1277
aVav
p1278
aVay
p1279
aVwatched
p1280
aVstraightend
p1281
aVaz
p1282
aVcream
p1283
aViadore
p1284
aVisthisreal
p1285
aVmanaging
p1286
aVyoga
p1287
aVaa1458
p1288
aVgraduate
p1289
aVtight
p1290
aVfransisco
p1291
aVwerenotincalianymore
p1292
aVpuppy
p1293
aVwastedeffort
p1294
aVdisgraceful
p1295
aVherba
p1296
aVterri
p1297
aVrefunded
p1298
aVmiriam
p1299
aVterra
p1300
aVseriousness
p1301
aVaa3031so
p1302
aVa3
p1303
aVredcarpet
p1304
aVterry
p1305
aVa9
p1306
aVa8
p1307
aVresell
p1308
aVua1724
p1309
aVua475
p1310
aVwaived
p1311
aVsobbing
p1312
aVtricks
p1313
aVmask
p1314
aVstroller
p1315
aVmass
p1316
aVadam
p1317
aVeatup
p1318
aVmytimeismoney
p1319
aVoriginal
p1320
aVwaiver
p1321
aVwaives
p1322
aVnotafanofyourmerger
p1323
aVconsider
p1324
aVsms
p1325
aVbeware
p1326
aVwelfare
p1327
aVminors
p1328
aVmason
p1329
aVcauses
p1330
aVua1469
p1331
aVtx
p1332
aVty
p1333
aVtv
p1334
aVtt
p1335
aVtu
p1336
aVsmm
p1337
aVtn
p1338
aVtail
p1339
aVtk
p1340
aVth
p1341
aVtf
p1342
aVsmile
p1343
aVtb
p1344
aVnorm
p1345
aVta
p1346
aVappointment
p1347
aVreturned
p1348
aVcheckin
p1349
aVreader
p1350
aVbpdfpp
p1351
aVinterpreting
p1352
aVlabor
p1353
aVstrand
p1354
aVtotes
p1355
aVmoines
p1356
aVhooking
p1357
aVcable
p1358
aVshenanigans
p1359
aVmisinformation
p1360
aVt3
p1361
aVt1
p1362
aVpesky
p1363
aVsand
p1364
aVpbi
p1365
aVinchecking
p1366
aVsnowbound
p1367
aVquicker
p1368
aVpaso
p1369
aVsync
p1370
aVtruebluemember4life
p1371
aVpast
p1372
aVdisplays
p1373
aVpass
p1374
aVinvestment
p1375
aVhandicapped
p1376
aVhormonal
p1377
aVrichard
p1378
aVdisruptions
p1379
aVsection
p1380
aVburgundy
p1381
aVcontrollableirregularity
p1382
aVtightconnection
p1383
aVmethod
p1384
aVabbreve
p1385
aVescaping
p1386
aVgif
p1387
aVdiapers
p1388
aVyoudidit
p1389
aVua4646
p1390
aVlavoratories
p1391
aVmakeitright
p1392
aVvieques
p1393
aVunserved
p1394
aVsquashed
p1395
aValsoyayforsnacks
p1396
aVamypoehler
p1397
aVtomoro
p1398
aVirmafromdallas
p1399
aVexperience
p1400
aVpics
p1401
aVprior
p1402
aVsocial
p1403
aVaction
p1404
aVmurdering
p1405
aVvia
p1406
aVfollowed
p1407
aVterribleservice
p1408
aVvip
p1409
aVbutnot
p1410
aVpulls
p1411
aVgosh
p1412
aVselect
p1413
aVsongs
p1414
aVpearl
p1415
aVmorn
p1416
aVrecouping
p1417
aVrefueling
p1418
aVphonedied
p1419
aVteen
p1420
aVdoor
p1421
aVinitiated
p1422
aVrollerboards
p1423
aVcompany
p1424
aVcorrected
p1425
aVenormous
p1426
aVrudeness
p1427
aVgogh
p1428
aVuncool
p1429
aVexpeditious
p1430
aVbabyfood
p1431
aVkeeping
p1432
aVburningman
p1433
aVscience
p1434
aVfiousairways
p1435
aVinstalling
p1436
aVallende
p1437
aVindicating
p1438
aVevolved
p1439
aVlearn
p1440
aVtoolittletoolate
p1441
aVmale
p1442
aVscramble
p1443
aVdoesntfeellikestatusyet
p1444
aVbeautiful
p1445
aVscam
p1446
aVimpacts
p1447
aVstated
p1448
aVshowsomerespect
p1449
aVyourstoryhere
p1450
aVsuggestions
p1451
aVaccept
p1452
aVitsthelittlethings
p1453
aVsense
p1454
aVschoolgirl
p1455
aVstation
p1456
aVdress
p1457
aVtsaprecheck
p1458
aVhuge
p1459
aVtulsa
p1460
aVatt
p1461
aVdismissed
p1462
aVwhatacluster
p1463
aVglowing
p1464
aVearnings
p1465
aVcling
p1466
aVoccur
p1467
aVvacatime
p1468
aVjetbluemember
p1469
aVwaved
p1470
aVintended
p1471
aVquadruples
p1472
aVsympathize
p1473
aVyxu
p1474
aVplane
p1475
aVplanb
p1476
aVmaltese
p1477
aVethics
p1478
aVsocialtantrum
p1479
aVaddtl
p1480
aVflutter
p1481
aVyxe
p1482
aVrefuse
p1483
aVpreciate
p1484
aVflightrs
p1485
aVregister
p1486
aVvolleyball
p1487
aVbailey
p1488
aVspeeds
p1489
aVstewart
p1490
aVreplied
p1491
aVito
p1492
aVbowl
p1493
aVnoanswer
p1494
aVlostinlove
p1495
aVtrade
p1496
aVattitude
p1497
aVpaper
p1498
aVscott
p1499
aVfrequentflyers
p1500
aVreplies
p1501
aVbroadway
p1502
aVsmiling
p1503
aVearnedmybusiness
p1504
aVbummed
p1505
aVorphan
p1506
aVrapidly
p1507
aVmistreated
p1508
aVshifts
p1509
aVaerojobmarket
p1510
aVruining
p1511
aVbypass
p1512
aVfollowers
p1513
aVtravelling
p1514
aVsauce
p1515
aVcolleague
p1516
aVcrjs
p1517
aVentire
p1518
aVprbound
p1519
aVidols
p1520
aVsucked
p1521
aViraiq
p1522
aVevn
p1523
aVeverytime
p1524
aVtroubleshoot
p1525
aVisle
p1526
aVcourses
p1527
aVoscarnight
p1528
aVfound
p1529
aVshocking
p1530
aVdisorganized
p1531
aVstatus
p1532
aVengland
p1533
aVforwarding
p1534
aVreduce
p1535
aVua3426
p1536
aVgrandmothers
p1537
aVslowdown
p1538
aVclockwork
p1539
aVtonite
p1540
aVtahiti
p1541
aVgfc
p1542
aVoperation
p1543
aVscareways
p1544
aVinquired
p1545
aVmissed
p1546
aVftw
p1547
aVresearch
p1548
aVmisses
p1549
aVoffensively
p1550
aVoffline
p1551
aVoccurs
p1552
aVhighway
p1553
aVsteering
p1554
aVbelief
p1555
aVmanch
p1556
aVzabsonre
p1557
aVcockpit
p1558
aVqualify
p1559
aVbasketball
p1560
aVoutfitted
p1561
aVimagine
p1562
aVreproach
p1563
aVplowing
p1564
aVbumped
p1565
aVpairs
p1566
aVsytycd
p1567
aVespinosa
p1568
aVrack
p1569
aVpressurecooker
p1570
aVexpedient
p1571
aVunmanned
p1572
aVcontingency
p1573
aVexhibited
p1574
aVmajor
p1575
aVteamnkh
p1576
aVterrifyingly
p1577
aVrecruiting
p1578
aVbelligerent
p1579
aVunusable
p1580
aVloweredexpectations
p1581
aVripoffs
p1582
aVguess
p1583
aVheads
p1584
aVleverage
p1585
aVjet
p1586
aVdfw
p1587
aVswipe
p1588
aVthreatening
p1589
aVcheckpoint
p1590
aVsnowwillnevermelt
p1591
aVaa3688
p1592
aVhotl
p1593
aVsummit
p1594
aVevoucher
p1595
aVrelationship
p1596
aVtheworstairline
p1597
aVinterviewed
p1598
aVimmediate
p1599
aVbestcrew
p1600
aVconsult
p1601
aVunrealistic
p1602
aVhourdelay
p1603
aVmayweather
p1604
aVtraps
p1605
aVvocab
p1606
aVcondolences
p1607
aVdisrespected
p1608
aVgetaway
p1609
aVlas2buf
p1610
aVtummy
p1611
aVjobfail
p1612
aVdetermined
p1613
aVemirates
p1614
aVtaxis
p1615
aVremembers
p1616
aVa49
p1617
aVbhm
p1618
aVtheyareallbetter
p1619
aVswanky
p1620
aVlivery
p1621
aVsell
p1622
aVjustwantmybed
p1623
aVspaghetti
p1624
aVself
p1625
aVinternal
p1626
aVsatisfactory
p1627
aVflts
p1628
aVcots
p1629
aVplay
p1630
aVcomplainer
p1631
aVaa153
p1632
aVplat
p1633
aVunused
p1634
aVvirus
p1635
aVplan
p1636
aVua6255
p1637
aVaccepting
p1638
aVcolliding
p1639
aVunderstands
p1640
aVexe
p1641
aVomaha
p1642
aVtpa
p1643
aVflite
p1644
aVsometimes
p1645
aVcover
p1646
aVh2o
p1647
aVsomeones
p1648
aVexp
p1649
aVcarrieunderwood
p1650
aVbarrel
p1651
aVjustify
p1652
aVassisted
p1653
aVdespise
p1654
aVugh
p1655
aVgolf
p1656
aVbringin
p1657
aVgold
p1658
aVextractions
p1659
aVaccommodations
p1660
aVnasdaq
p1661
aVsession
p1662
aVexpressed
p1663
aVoverwhelmed
p1664
aVimpact
p1665
aVsayin
p1666
aVjetbae
p1667
aVshitshow
p1668
aVwrites
p1669
aVfailed
p1670
aVwayne
p1671
aVtwins
p1672
aVunknowledgeable
p1673
aVgiants
p1674
aVbegins
p1675
aVcstsvc
p1676
aVrefers
p1677
aVbanned
p1678
aVsunny
p1679
aVresent
p1680
aVremedy
p1681
aVfrightening
p1682
aVresend
p1683
aVvirginatlantic
p1684
aVpunishedforflying
p1685
aVcry
p1686
aVtanked
p1687
aVbarzegar
p1688
aVcri
p1689
aVoscars2015
p1690
aVinsane
p1691
aVsev
p1692
aVhappy4them
p1693
aVset
p1694
aVoscars2016
p1695
aVsep
p1696
aVsex
p1697
aVseg
p1698
aVcollectively
p1699
aVsec
p1700
aVsea
p1701
aVwhereisthelove
p1702
aVorigami
p1703
aVua5282
p1704
aVbranson
p1705
aVoutward
p1706
aVknees
p1707
aVritz
p1708
aVunsettling
p1709
aVdeactivate
p1710
aVmovie
p1711
aVcurrently
p1712
aVrejecting
p1713
aVaa3370
p1714
aVcaptured
p1715
aVreleasing
p1716
aVnope
p1717
aVcompliment
p1718
aVsuree
p1719
aVknowing
p1720
aVdivident
p1721
aVfedup
p1722
aVincident
p1723
aVrenewed
p1724
aVahoy
p1725
aVdividend
p1726
aVunapologetic
p1727
aVimproved
p1728
aVdesparately
p1729
aVpdx
p1730
aVpdw
p1731
aVopal
p1732
aVbarely
p1733
aVfustrated
p1734
aVconnection
p1735
aVimproves
p1736
aVacquisition
p1737
aVnjv4bp
p1738
aVapprove
p1739
aVhealing
p1740
aVload
p1741
aVdrunk
p1742
aVacted
p1743
aVcommunity
p1744
aVcoincidence
p1745
aVagents
p1746
aVchkin
p1747
aVimprovement
p1748
aVbelt
p1749
aVworthless
p1750
aVfunnycaptain
p1751
aVconveyor
p1752
aVmonthly
p1753
aVhitting
p1754
aVmindset
p1755
aVfirm
p1756
aVresting
p1757
aVsweetheart
p1758
aVwheresmyrefund
p1759
aVfire
p1760
aVbitchy
p1761
aVmaps
p1762
aVfritz
p1763
aVraces
p1764
aVawake
p1765
aVrepresentative
p1766
aVfunc
p1767
aVreceive
p1768
aVtowns
p1769
aVhappytohelp
p1770
aVnrt
p1771
aVinclement
p1772
aVhandling
p1773
aVreliable
p1774
aVexpanded
p1775
aVbudget
p1776
aVjetblues
p1777
aVforgetting
p1778
aVpressed
p1779
aVerror
p1780
aVrobin
p1781
aVowed
p1782
aVpound
p1783
aVweaktea
p1784
aVaveraging
p1785
aVworstcustomerservice
p1786
aVowen
p1787
aVdecline
p1788
aVtriple
p1789
aVbeautifully
p1790
aVjetbluesucks
p1791
aVsaddening
p1792
aVchase
p1793
aVfunny
p1794
aVchurn
p1795
aVdeplaning
p1796
aVmint
p1797
aVaa2416
p1798
aVholton
p1799
aVread
p1800
aVreachable
p1801
aVvirtually
p1802
aVincase
p1803
aVsurvey
p1804
aVdispleased
p1805
aValert
p1806
aVlevels
p1807
aVnecessity
p1808
aVrecent
p1809
aVcanned
p1810
aVflt199
p1811
aVanhour
p1812
aVpicks
p1813
aVconcrete
p1814
aVfeces
p1815
aVexpens
p1816
aVkelly
p1817
aVclearance
p1818
aVsoaked
p1819
aVcabins
p1820
aVlistening
p1821
aVbebetter
p1822
aVuntz
p1823
aVbelabor
p1824
aVcabine
p1825
aVuntd
p1826
aVsime
p1827
aVblackberry10
p1828
aVbusinessfirst
p1829
aVglitches
p1830
aVreaders
p1831
aVlady
p1832
aVdoumented
p1833
aVua3530
p1834
aVeager
p1835
aVparents
p1836
aVlocation
p1837
aVcrying
p1838
aVcourtney
p1839
aVinput
p1840
aVreverted
p1841
aVsurprised
p1842
aVdefiantly
p1843
aVaustralia
p1844
aVemergency
p1845
aVformat
p1846
aVaspenbaggagefail
p1847
aVskateboards
p1848
aVjoined
p1849
aVshitty
p1850
aVsuffering
p1851
aVprojects
p1852
aVformal
p1853
aVthismosaicnothappy
p1854
aVsorting
p1855
aVvday
p1856
aVcommunications
p1857
aVcontinue
p1858
aVanswerthis
p1859
aVfeelingtheluv
p1860
aVmcgraw
p1861
aVcarryon
p1862
aVmethods
p1863
aVgoddamn
p1864
aVbounce
p1865
aVb4
p1866
aVtinderchamp
p1867
aVb6
p1868
aVpalm
p1869
aVb1
p1870
aVsight
p1871
aVb3
p1872
aVcurious
p1873
aVsprint
p1874
aVb8
p1875
aVams
p1876
aVbushug
p1877
aVwererunning
p1878
aVthrower
p1879
aVgetconnected
p1880
aVbehave
p1881
aVdating
p1882
aVbd
p1883
aVbf
p1884
aVbg
p1885
aVba
p1886
aVbc
p1887
aVlongday
p1888
aVtiday
p1889
aVagreement
p1890
aVbk
p1891
aVbt
p1892
aVthe15hours
p1893
aVdepartures
p1894
aVsanta
p1895
aVbs
p1896
aVsanto
p1897
aVcarol
p1898
aVtower
p1899
aVbz
p1900
aVgifts
p1901
aVzip
p1902
aVdeserved
p1903
aVsnowballed
p1904
aVmelbourne
p1905
aVdeserves
p1906
aVbaejet
p1907
aVhelpfulness
p1908
aVchi
p1909
aVmouth
p1910
aVrepair
p1911
aVletter
p1912
aVgarbage
p1913
aVhometown
p1914
aVservers
p1915
aVappropriate
p1916
aVevr
p1917
aVrepaid
p1918
aVflaw
p1919
aVunnerving
p1920
aVnotion
p1921
aVpoorcommunication
p1922
aVspan
p1923
aVsneaky
p1924
aVspending
p1925
aVsubmit
p1926
aVgolfunited
p1927
aVoccupy
p1928
aVunitedfail
p1929
aVsuit
p1930
aVstrives
p1931
aVconsiderably
p1932
aVelsewhere
p1933
aVinches
p1934
aVpastor
p1935
aVmileageplus
p1936
aVarchaic
p1937
aVlink
p1938
aVcompetition
p1939
aVline
p1940
aVconsiderable
p1941
aVdoo
p1942
aVfindanothergate
p1943
aVux
p1944
aVredeemed
p1945
aVinhumane
p1946
aVcareyon
p1947
aVur
p1948
aVum
p1949
aVpreemptive
p1950
aVuh
p1951
aVuk
p1952
aVud
p1953
aVua
p1954
aValarm
p1955
aVyelled
p1956
aVcamp
p1957
aVsupervisor
p1958
aVlabrador
p1959
aVtiredofthis
p1960
aVunsafe
p1961
aVsxm
p1962
aVchar
p1963
aVneurosurgery
p1964
aVchat
p1965
aVsurveying
p1966
aVdefines
p1967
aVphantom
p1968
aVcodes
p1969
aVlogistically
p1970
aVtic
p1971
aVdissemination
p1972
aVfixing
p1973
aVtara
p1974
aVreimbursed
p1975
aVpreventing
p1976
aVdrunks
p1977
aVcoded
p1978
aVresearching
p1979
aVoutsourced
p1980
aVsided
p1981
aVscrum
p1982
aVregina
p1983
aVlucia
p1984
aVlufthansa
p1985
aVpointy
p1986
aVgvn
p1987
aVmeals
p1988
aVago
p1989
aVlane
p1990
aVland
p1991
aVtexted
p1992
aVdealings
p1993
aVparhetic
p1994
aVscotch
p1995
aVage
p1996
aVthrombosis
p1997
aVwalked
p1998
aVbqonpa
p1999
aVbeverage
p2000
aVdot
p2001
aVenrolled
p2002
aVfresh
p2003
aVagt
p2004
aVhello
p2005
aVmonterey
p2006
aVcode
p2007
aVpartial
p2008
aVadvisory
p2009
aVresults
p2010
aVexisting
p2011
aVenjoyable
p2012
aVactualy
p2013
aVstops
p2014
aVfreakin
p2015
aVcenters
p2016
aVluxuries
p2017
aVbestinclass
p2018
aVlongstanding
p2019
aVturkish
p2020
aVconcerned
p2021
aVsend
p2022
aVciting
p2023
aVsorrynotsorry
p2024
aVumosaicmecrazy
p2025
aVtravelocity
p2026
aVdislike
p2027
aVhints
p2028
aVtequila
p2029
aVsent
p2030
aVneverflyvirgin
p2031
aVtorture
p2032
aVstaticy
p2033
aVcontinues
p2034
aVpleasent
p2035
aVchairmans
p2036
aVstocker
p2037
aVanimals
p2038
aVcontinued
p2039
aVwipe
p2040
aVtimely
p2041
aVmagic
p2042
aVmissedwork
p2043
aVsouthwestluv
p2044
aVharbor
p2045
aVexperiencing
p2046
aVmarry
p2047
aVgettin
p2048
aVcheap1
p2049
aVfewer
p2050
aVtry
p2051
aVrace
p2052
aVflite454
p2053
aVtrite
p2054
aVhiremorepoeple
p2055
aVtru
p2056
aVathlete
p2057
aVevv
p2058
aVlogistics
p2059
aVdontmakemegooutside
p2060
aVbg0kwm
p2061
aVlax29108m
p2062
aVcrook
p2063
aVvideo
p2064
aVincidentally
p2065
aVodd
p2066
aVmoodlight
p2067
aVmultimedia
p2068
aVmiddleeast
p2069
aVsweaty
p2070
aVconsistently
p2071
aVindian
p2072
aVturnaround
p2073
aVbagawim
p2074
aVcrickets
p2075
aVbird
p2076
aVexceptionalservice
p2077
aVmontereyregionalairport
p2078
aVlea
p2079
aVled
p2080
aVleg
p2081
aVdelivering
p2082
aVlex
p2083
aVconsideration
p2084
aVissuing
p2085
aVrdu
p2086
aVprecheck
p2087
aVctr
p2088
aVtechnical
p2089
aVinvolved
p2090
aVinoperable
p2091
aVcty
p2092
aVua1764
p2093
aVctg
p2094
aVresulting
p2095
aVcousins
p2096
aVctl
p2097
aVopinion
p2098
aVyeehaw
p2099
aVmakes
p2100
aVweekends
p2101
aVthats
p2102
aVplatinums
p2103
aVpanicked
p2104
aVfirefox
p2105
aVbestplanesever
p2106
aVthepoopqueen
p2107
aVopenskies
p2108
aVerroring
p2109
aVua1429
p2110
aVtools
p2111
aVinconveniently
p2112
aVaquadilla
p2113
aVstanding
p2114
aVconfidence
p2115
aVcommunicationiskey
p2116
aVcertificate
p2117
aVcoached
p2118
aVillegal
p2119
aVjetbluejfk
p2120
aVassuring
p2121
aVdoubt
p2122
aVluvin
p2123
aVtouched
p2124
aVlovesouthwestair
p2125
aVua922
p2126
aVoccurred
p2127
aVintegrate
p2128
aVcarrying
p2129
aVrubbish
p2130
aVbaby
p2131
aVgladly
p2132
aVpieces
p2133
aVcharity
p2134
aVcustomer
p2135
aVballs
p2136
aVunrivalled
p2137
aVintegrating
p2138
aVchallenge
p2139
aVclients
p2140
aVprompts
p2141
aVhonululu
p2142
aVthin
p2143
aVeould
p2144
aVfulfill
p2145
aVcoffin
p2146
aVsabe
p2147
aVprocess
p2148
aVlock
p2149
aVtranspired
p2150
aVokcprofessionals
p2151
aVslip
p2152
aVpaws
p2153
aVeducational
p2154
aVdestroying
p2155
aVmumbled
p2156
aVstruggling
p2157
aVdelay
p2158
aVreinstated
p2159
aVsrq
p2160
aVpair
p2161
aVanimal
p2162
aVkravitz
p2163
aVcomedy
p2164
aVintelligent
p2165
aVpales
p2166
aVlhrt2
p2167
aVcinnabons
p2168
aVthereisafirstforeverything
p2169
aVawait
p2170
aVtied
p2171
aVstylesheets
p2172
aVfitz
p2173
aVpigs
p2174
aVevry
p2175
aVfits
p2176
aVupstate
p2177
aVexecutiveplatinummeansnothing
p2178
aVefficiently
p2179
aVrealized
p2180
aVimdetermined
p2181
aVboeing
p2182
aVgetmeoffthisbird
p2183
aVcounter
p2184
aVloyalmosaicmember
p2185
aVrobot
p2186
aVallow
p2187
aVclassy
p2188
aVvolunteers
p2189
aVcounted
p2190
aVhappycamper
p2191
aVhouston
p2192
aVcushion
p2193
aVcomms
p2194
aVdeboards
p2195
aVmove
p2196
aVdisinfectant
p2197
aVdoubtful
p2198
aVproduced
p2199
aVdming
p2200
aVmcmullen
p2201
aVdirects
p2202
aVperfect
p2203
aVcrabby
p2204
aVchosen
p2205
aVyoucandobetter
p2206
aVplaysoon
p2207
aVlamp
p2208
aVmeantime
p2209
aVthieves
p2210
aVdegrees
p2211
aVaccompaniments
p2212
aVinstruments
p2213
aVpuerto
p2214
aVsabotaging
p2215
aVdesigns
p2216
aVseatbelt
p2217
aVcust
p2218
aVprecioustime
p2219
aVnada
p2220
aVlaunder
p2221
aVdisrupted
p2222
aVfreaky
p2223
aVtransparent
p2224
aVpresidential
p2225
aVseatac
p2226
aVflamethrowers
p2227
aVsloowresponses
p2228
aVmissingtheoscars
p2229
aVmerge
p2230
aVdelightful
p2231
aVanotherfail
p2232
aVtruth
p2233
aVprincesses
p2234
aVrising
p2235
aVglasses
p2236
aVbump
p2237
aVhabitually
p2238
aVbums
p2239
aVkitchen
p2240
aVsociety
p2241
aVfrequency
p2242
aVexacerbates
p2243
aVshannon
p2244
aVborderline
p2245
aVreload
p2246
aVladan
p2247
aVhilarious
p2248
aVunprepared
p2249
aVpointsme
p2250
aVwaters
p2251
aVfrowny
p2252
aVshut
p2253
aVgreedy
p2254
aVtemps
p2255
aVstingy
p2256
aVsurely
p2257
aVlmfaoo
p2258
aVluggages
p2259
aVturrible
p2260
aVlynchburg
p2261
aVua6357
p2262
aVgifting
p2263
aVwhatstatus
p2264
aVdavid
p2265
aVchilly
p2266
aVlength
p2267
aVunitedlies
p2268
aVremoving
p2269
aVscare
p2270
aVscarf
p2271
aVilovejetblue
p2272
aVblown
p2273
aVscene
p2274
aVjesus
p2275
aVtier
p2276
aVowner
p2277
aVblows
p2278
aViha
p2279
aVscent
p2280
aVprank
p2281
aVsharon
p2282
aVdeceptive
p2283
aVstart
p2284
aVfestival
p2285
aVbehaves
p2286
aVtraveller
p2287
aVsystem
p2288
aVcmfat3500feet
p2289
aVmiscounting
p2290
aVtravelled
p2291
aVpainful
p2292
aVevacuated
p2293
aVenforcement
p2294
aVaccompany
p2295
aVstars
p2296
aVshorts
p2297
aVgotcha
p2298
aVdepressing
p2299
aVchitocle
p2300
aVelite
p2301
aVthetakeover
p2302
aVsteel
p2303
aVsporting
p2304
aVegregious
p2305
aVbother
p2306
aVroberto
p2307
aVtortured
p2308
aVrollercoaster
p2309
aVnegatively
p2310
aVsteep
p2311
aVwestagard
p2312
aVfalse
p2313
aVdeodorant
p2314
aVgently
p2315
aVspelled
p2316
aVtonight
p2317
aVamirite
p2318
aVunhappycustomer
p2319
aVvaca
p2320
aVkevolt
p2321
aVnecessities
p2322
aVprohibits
p2323
aVstudying
p2324
aVcavan
p2325
aVua80
p2326
aVuncalled
p2327
aVoldpolicieswaybetter
p2328
aVseductive
p2329
aVsirius
p2330
aVpersistence
p2331
aVworldwide
p2332
aVnancy
p2333
aVcourtesy
p2334
aVvisa
p2335
aVdevice
p2336
aVmedal
p2337
aVperiolodicly
p2338
aVindenial
p2339
aVfurnish
p2340
aVmechanical
p2341
aVwounded
p2342
aVoreos
p2343
aVlmaoo
p2344
aVchgd
p2345
aVchge
p2346
aVbring
p2347
aVbikes
p2348
aVmanchester
p2349
aVlloyd
p2350
aVripoff
p2351
aVbrink
p2352
aVupgrd
p2353
aVredirect
p2354
aVjax
p2355
aVhops
p2356
aVflightlation
p2357
aVterminal
p2358
aVattitudeissues
p2359
aVjal
p2360
aVjam
p2361
aVprinters
p2362
aVbourbon
p2363
aVsohappy
p2364
aVua90
p2365
aVhope
p2366
aVmeant
p2367
aVjacqueline
p2368
aVflyerfriendly
p2369
aVinsight
p2370
aVhandle
p2371
aVlistened
p2372
aVmeans
p2373
aVfamiliar
p2374
aVwarmweather
p2375
aVcranky
p2376
aVlucky
p2377
aVwiggle
p2378
aVacces
p2379
aVclicked
p2380
aVaex
p2381
aVfrozenwater
p2382
aVtaxes
p2383
aVhemispheres
p2384
aVstuff
p2385
aVdallas
p2386
aVohio
p2387
aVmdw2mci
p2388
aVusvi
p2389
aVsuperstars
p2390
aVguessing
p2391
aVbtw
p2392
aVbtv
p2393
aVbtr
p2394
aVaa375
p2395
aVframe
p2396
aVoma
p2397
aVbrokenwheel
p2398
aVhanged
p2399
aVedition
p2400
aVpacked
p2401
aVdungeon
p2402
aVsuperhero
p2403
aVnationwide
p2404
aVjurassic
p2405
aVwtw
p2406
aVyass
p2407
aVquickest
p2408
aVpistol
p2409
aVemail
p2410
aVdisgruntled
p2411
aVaa119
p2412
aVinterchangeably
p2413
aVgoodflight
p2414
aVhomeward
p2415
aVweary
p2416
aVmccaren
p2417
aVstaring
p2418
aVmarty
p2419
aVrestrictions
p2420
aVfigured
p2421
aVinvited
p2422
aVramp
p2423
aVrams
p2424
aVtlc
p2425
aVetc
p2426
aVeta
p2427
aVfigures
p2428
aVetd
p2429
aVbriughy
p2430
aVapostrophe
p2431
aVtlh
p2432
aVll
p2433
aVketr
p2434
aVfear
p2435
aVco
p2436
aVmedallion
p2437
aVimpersonator
p2438
aVcc
p2439
aVstranding
p2440
aVca
p2441
aVsnowfall
p2442
aVnonstops
p2443
aVwth
p2444
aVcx
p2445
aVcs
p2446
aVcr
p2447
aVwinning
p2448
aVjacquie
p2449
aVct
p2450
aVmidland
p2451
aVpowered
p2452
aVblatant
p2453
aVcrewmembers
p2454
aVcompensating
p2455
aVwaste
p2456
aVhomosexual
p2457
aVlgb
p2458
aVflintstone
p2459
aVlga
p2460
aVua1745
p2461
aVc9
p2462
aVamericanairsucks
p2463
aVua1740
p2464
aVresort
p2465
aVhateful
p2466
aVgraphics
p2467
aVatlanta
p2468
aVspain
p2469
aVc4
p2470
aVmiscommunicated
p2471
aVwestpalmbeachbound
p2472
aVrunway
p2473
aVreliability
p2474
aVexpiration
p2475
aVafiliates
p2476
aVmaui
p2477
aVdiverged
p2478
aVva
p2479
aVstuffing
p2480
aVuncertainty
p2481
aVve
p2482
aVinsanely
p2483
aVsite
p2484
aVvp
p2485
aVvs
p2486
aVvt
p2487
aVoptimistic
p2488
aVvx
p2489
aVsits
p2490
aVwaivers
p2491
aVtattoo
p2492
aVyouknowyouwantto
p2493
aVjuan
p2494
aVpaulo
p2495
aVcoshared
p2496
aVdigging
p2497
aVontarmac
p2498
aVoutbreak
p2499
aVandroid
p2500
aVconflicting
p2501
aVphi
p2502
aVball
p2503
aVcolumbia
p2504
aVlookin
p2505
aVrestating
p2506
aVua761
p2507
aVdrink
p2508
aVunsympathetic
p2509
aVua768
p2510
aVforecasts
p2511
aVnewamericanairline
p2512
aVthks
p2513
aVyouragentshavenoclue
p2514
aVnade
p2515
aVrobotic
p2516
aVdust
p2517
aVbalt
p2518
aVmosaic
p2519
aVpleasantly
p2520
aVacknowledgement
p2521
aVthefutureisweird
p2522
aVsendambien
p2523
aVgreatservice
p2524
aVpatterns
p2525
aVcommand
p2526
aVaudio
p2527
aVluvisbetter
p2528
aVstillnobags
p2529
aVnegligence
p2530
aVmoments
p2531
aVdisconnections
p2532
aVoxgen
p2533
aVflydeltanexttime
p2534
aVgoing2
p2535
aVenterprise
p2536
aVweb
p2537
aVunaccomidating
p2538
aVkindness
p2539
aVflythroughs
p2540
aVwed
p2541
aVcameragear
p2542
aVrealize
p2543
aVcombine
p2544
aVexpowest
p2545
aVwet
p2546
aVparentsonboard
p2547
aVfalseadvertising
p2548
aVcomeonpeople
p2549
aVincreased
p2550
aVtripitpro
p2551
aVgovernment
p2552
aVdest
p2553
aVnoneother
p2554
aVsmugsmirk
p2555
aVcruz
p2556
aVfive
p2557
aVdesk
p2558
aVnvm
p2559
aVpassword
p2560
aVkeepusguessing
p2561
aVbenadryl
p2562
aVonion
p2563
aVchairs
p2564
aVprincesshalf
p2565
aVgarage
p2566
aVa320
p2567
aVa321
p2568
aVnerves
p2569
aVmht
p2570
aVbng
p2571
aVinexperienced
p2572
aVreplacement
p2573
aVrepartee
p2574
aVseeks
p2575
aVmd80
p2576
aVtmw
p2577
aVuncharacteristic
p2578
aVbeefjerky
p2579
aVchoosing
p2580
aVsprings
p2581
aVthier
p2582
aVfiasco
p2583
aVtransport
p2584
aVpillows
p2585
aVdisbelief
p2586
aVsufficiently
p2587
aVliterally
p2588
aVreboard
p2589
aVwoohoo
p2590
aVpassion
p2591
aVforgiven
p2592
aVcapability
p2593
aVkangaroos
p2594
aVbetty
p2595
aVblowing
p2596
aVschedule
p2597
aVselecting
p2598
aVshortage
p2599
aVdonthavehighhopes
p2600
aVpressure
p2601
aVproceeded
p2602
aVlastnight
p2603
aVloans
p2604
aVcoldly
p2605
aVstage
p2606
aVsister
p2607
aVbilling
p2608
aVdeplanes
p2609
aVairpt
p2610
aVangeles
p2611
aViwas
p2612
aVinsufficient
p2613
aVdeplaned
p2614
aValliance
p2615
aVletters
p2616
aVrectify
p2617
aVflailing
p2618
aVcommitment
p2619
aVhotterandlongerthanhell
p2620
aVlung
p2621
aVwronganswer
p2622
aVroads
p2623
aVmere
p2624
aVstillwaiting
p2625
aVmoveaboutthecountry
p2626
aVdeoderant
p2627
aVlearncustomerservice
p2628
aVnofilterneeded
p2629
aVhousing
p2630
aVpairing
p2631
aVspots
p2632
aVcorevalues
p2633
aVdoing
p2634
aVfrustration
p2635
aVtroubling
p2636
aVsellmypointssoon
p2637
aVyrs
p2638
aVfunction
p2639
aVfiscal
p2640
aVusairheads
p2641
aVdelivery
p2642
aVlowered
p2643
aVcyndi
p2644
aVcount
p2645
aVtossed
p2646
aVdeficiency
p2647
aVofficial
p2648
aVsmooth
p2649
aVexcitement
p2650
aVplaced
p2651
aVanamarketers
p2652
aVconvince
p2653
aVstatic
p2654
aVdistribution
p2655
aVodds
p2656
aVwebsite
p2657
aVrechecked
p2658
aVint
p2659
aVrecognize
p2660
aVinv
p2661
aVbettween
p2662
aVins
p2663
aVsibling
p2664
aVerring
p2665
aVind
p2666
aVinc
p2667
aVcompared
p2668
aVnonetheless
p2669
aVtrials
p2670
aVgoodluckamericanair
p2671
aVsaviour
p2672
aVcompares
p2673
aVwitness
p2674
aVus4551
p2675
aVreckless
p2676
aViove
p2677
aVrepeat
p2678
aVmonday
p2679
aVtides
p2680
aVoutlets
p2681
aVchance
p2682
aVinflation
p2683
aVpacify
p2684
aVboldflavors
p2685
aVcheeze
p2686
aVinspiration
p2687
aVabcletjetbluestreamfeed
p2688
aVmontrose
p2689
aVsavethediagonals
p2690
aVtransports
p2691
aVscareair
p2692
aVlasted
p2693
aVrule
p2694
aVminefits
p2695
aVwrite
p2696
aVcompete
p2697
aVannounces
p2698
aVdefend
p2699
aVticketed
p2700
aVsaver
p2701
aVsaves
p2702
aVdesirable
p2703
aVneedlessly
p2704
aVeverythingsgonnabealright
p2705
aVprebooked
p2706
aVbringbacktheluvtordu
p2707
aVparizad
p2708
aVsaved
p2709
aVtheydontanswer
p2710
aVstinks
p2711
aVpedro
p2712
aVua688
p2713
aVbike
p2714
aVvoted
p2715
aVslowest
p2716
aVdiverted
p2717
aVworth
p2718
aVcompassion
p2719
aVblanket
p2720
aVdurango
p2721
aVelectronics
p2722
aVtagging
p2723
aVtickets
p2724
aVontime
p2725
aVcmh
p2726
aVcourrier
p2727
aVdoublestandards
p2728
aVupload
p2729
aVsystemic
p2730
aVnotifying
p2731
aVmath
p2732
aVswallowed
p2733
aVtruebluepoints
p2734
aVpst
p2735
aVjamaica
p2736
aVdiverting
p2737
aVn598jb
p2738
aVnotokay
p2739
aVphones
p2740
aVwhyisusairalwaysdelayed
p2741
aVchef
p2742
aVinflating
p2743
aVrigorous
p2744
aVgoodcustomerservice
p2745
aVmhtforlife
p2746
aVphonee
p2747
aVjx4s2t
p2748
aVeveryones
p2749
aVric2dfw
p2750
aVdeliberate
p2751
aVdecisions
p2752
aVrockies
p2753
aVgolfbags
p2754
aVscumbag
p2755
aVofficially
p2756
aVeventhoughits2degreesathome
p2757
aVtold
p2758
aVsukhdeep
p2759
aVinterns
p2760
aVequals
p2761
aVnoservice
p2762
aVbangkok
p2763
aVprotection
p2764
aVcelebration
p2765
aVkudos
p2766
aVdaughter
p2767
aVfluctuated
p2768
aVitems
p2769
aVemployees
p2770
aVenvoy
p2771
aVusair4603
p2772
aVpooling
p2773
aVstressed
p2774
aVaka
p2775
aVthe16
p2776
aVa20
p2777
aVsecure
p2778
aVsundayfunday
p2779
aVbrr
p2780
aVhighly
p2781
aVbro
p2782
aVlavatory
p2783
aVinsta
p2784
aVopportunities
p2785
aVtotal
p2786
aVsarah
p2787
aVsunscreen
p2788
aVplow
p2789
aVcana
p2790
aVnegative
p2791
aVinsult
p2792
aVaa2334
p2793
aVfransico
p2794
aVcomcast
p2795
aVspreadtheword
p2796
aVtryin
p2797
aVseparated
p2798
aVscary
p2799
aVreadded
p2800
aVbuggy
p2801
aVhaha
p2802
aVaward
p2803
aVaware
p2804
aVaa1103
p2805
aVbackwards
p2806
aVmilesaaver
p2807
aVblocking
p2808
aVstbernard
p2809
aVelmira
p2810
aVerw
p2811
aVword
p2812
aVwore
p2813
aVerr
p2814
aVers
p2815
aVusairwayssucks
p2816
aVrefusing
p2817
aVworn
p2818
aVcusts
p2819
aVmechanic
p2820
aVtransferable
p2821
aVcrackers
p2822
aVeri
p2823
aVcusty
p2824
aVindicated
p2825
aVuhmm
p2826
aVnozzle
p2827
aVindia
p2828
aVheartless
p2829
aVindicates
p2830
aVwoman
p2831
aVual
p2832
aVchapman
p2833
aVtotaled
p2834
aVsweethearts
p2835
aVrecovery
p2836
aVfarce
p2837
aVcarriers
p2838
aVprovide
p2839
aVverify
p2840
aVnuts
p2841
aVconsumer
p2842
aVcancld
p2843
aVcanx
p2844
aVrookie
p2845
aVinterview
p2846
aVdisappoint
p2847
aVbeach
p2848
aVpizza
p2849
aVlan
p2850
aVbday
p2851
aVearlier
p2852
aVua5
p2853
aVmemorial
p2854
aVcustoms
p2855
aVetailwest
p2856
aVlax
p2857
aVinduce
p2858
aVkooples
p2859
aVwigs
p2860
aVlaw
p2861
aVlap
p2862
aVlas
p2863
aVhasty
p2864
aVthickens
p2865
aVappreciate
p2866
aVshucks
p2867
aVsons
p2868
aVgreen
p2869
aVva370
p2870
aVfan
p2871
aVrealizing
p2872
aVgreed
p2873
aVlindsay
p2874
aVoffice
p2875
aVdirtiest
p2876
aVsatisfied
p2877
aVfab
p2878
aVjapan
p2879
aVsivi
p2880
aVstillnotonmyflight
p2881
aVdenver
p2882
aVawfulness
p2883
aVvents
p2884
aVdamages
p2885
aVversus
p2886
aVeventually
p2887
aVcoffee
p2888
aVaffected
p2889
aVfavoriteairline
p2890
aVsafe
p2891
aVdeiced
p2892
aVbreak
p2893
aVband
p2894
aVdaytonabeach
p2895
aVshameful
p2896
aVmgmt
p2897
aVdeicer
p2898
aVpjs
p2899
aVbread
p2900
aVlostandforgotten
p2901
aVstillbagless
p2902
aVreasonably
p2903
aVrocks
p2904
aVautoresponse
p2905
aVreasonable
p2906
aVflyers
p2907
aVjeokoo
p2908
aVlogs
p2909
aVcreditcardsales
p2910
aVdumping
p2911
aVstilling
p2912
aVkiosks
p2913
aVlogo
p2914
aVslew
p2915
aVhostel
p2916
aVwhining
p2917
aVnetwork
p2918
aVcameras
p2919
aVhooked
p2920
aVforty
p2921
aVstrangers
p2922
aVdaniel
p2923
aVremorse
p2924
aVflight2031
p2925
aVaa244
p2926
aVforth
p2927
aVdisputed
p2928
aVbarrier
p2929
aVmileagerun
p2930
aVffstatusdontmatter
p2931
aVstandard
p2932
aVtheycouldatleastofferfreebooze
p2933
aVappointments
p2934
aVvets
p2935
aVvetr
p2936
aVmvp
p2937
aVrecovering
p2938
aVcreated
p2939
aVcreates
p2940
aVlousy
p2941
aVquirkiness
p2942
aVnocustomerservice
p2943
aVreachingnewlows
p2944
aVbohol
p2945
aVsynonymous
p2946
aVmiscalculation
p2947
aVwerenot
p2948
aVdelicious
p2949
aVcomin
p2950
aVunamericanairlines
p2951
aVrats
p2952
aVthick
p2953
aVelectronic
p2954
aVrated
p2955
aVsouthwestairwasthere
p2956
aVelevator
p2957
aVrates
p2958
aVua1023
p2959
aVua1022
p2960
aVjohn
p2961
aVhappily
p2962
aVrejected
p2963
aVhonolulu
p2964
aVnomorecheckedbags
p2965
aVwasted
p2966
aVlucas
p2967
aVtoronto
p2968
aVmercy
p2969
aVwarmest
p2970
aVevansville
p2971
aVtarget
p2972
aVhike
p2973
aVscenes
p2974
aVseated
p2975
aVktm
p2976
aVktn
p2977
aVhistorical
p2978
aVbrancato
p2979
aVpowers
p2980
aVkta
p2981
aVyoure
p2982
aVnavigate
p2983
aVdildo
p2984
aVmanner
p2985
aVcustomerservices
p2986
aVcontents
p2987
aVforced
p2988
aVstrength
p2989
aVcallbacks
p2990
aVypu
p2991
aVcustexp
p2992
aVlatter
p2993
aVforces
p2994
aVcurfew
p2995
aVamnt
p2996
aVcompleted
p2997
aVunsecured
p2998
aVcircles
p2999
aVmaiden
p3000
aViceland
p3001
aVextending
p3002
aVgermany
p3003
aVcockup
p3004
aVua6318
p3005
aVbracket
p3006
aVdeeply
p3007
aVjetblueanyone
p3008
aVresponded
p3009
aVreserve
p3010
aVrenting
p3011
aVflyingwithus
p3012
aVtheflight
p3013
aVthenewaa
p3014
aVmvmt
p3015
aVgreenville
p3016
aVfunited
p3017
aVd9
p3018
aVd6
p3019
aVnephew
p3020
aVd4
p3021
aVrescheduling
p3022
aVsiouxfalls
p3023
aVcartagena
p3024
aVumpteen
p3025
aVguidance
p3026
aVhrs
p3027
aVwinterweather
p3028
aVscreening
p3029
aVskys
p3030
aVnullified
p3031
aVskyw
p3032
aVlacma
p3033
aVlovee
p3034
aVdl
p3035
aVdm
p3036
aVdj
p3037
aVthislinehasntmovedforanhour
p3038
aVyuma
p3039
aVde
p3040
aVdc
p3041
aVpreferred
p3042
aVda
p3043
aVwatson
p3044
aVunderstaffed
p3045
aVkphl
p3046
aVonboard
p3047
aVdr
p3048
aVserenitynow
p3049
aVpeopleon
p3050
aVua514
p3051
aVcovering
p3052
aVunmet
p3053
aVlexington
p3054
aVemv
p3055
aVhopethegearmakesitintact
p3056
aVems
p3057
aVcomplimenting
p3058
aVexplanations
p3059
aVbachelorpartymishap
p3060
aVcharlote
p3061
aVobserver
p3062
aVgoodenoughmother
p3063
aVanalytics
p3064
aVdepends
p3065
aVhorrendous
p3066
aVmiserable
p3067
aVgrandcanyon
p3068
aVseattlebound
p3069
aVyer
p3070
aVdraws
p3071
aVdisabledtraveler
p3072
aVgentleman
p3073
aVcompensation
p3074
aVunable
p3075
aVprops
p3076
aVmisguided
p3077
aVmoveup
p3078
aVloose
p3079
aVwc
p3080
aVwa
p3081
aVlas2sfo
p3082
aVwo
p3083
aVtheverge
p3084
aVwk
p3085
aVaadvantage
p3086
aVws
p3087
aVadmirals
p3088
aVtravellers
p3089
aVclues
p3090
aVpackages
p3091
aVua5037
p3092
aVwx
p3093
aVreceived
p3094
aVcos
p3095
aVc26
p3096
aVcot
p3097
aVc25
p3098
aVill
p3099
aVc29
p3100
aVonechildfourbags
p3101
aVbrag
p3102
aVils
p3103
aVreceives
p3104
aVrequests
p3105
aVdisappears
p3106
aVcon
p3107
aVtough
p3108
aVoffloading
p3109
aVvein
p3110
aVcharacter
p3111
aVexcess
p3112
aVcondescending
p3113
aVtons
p3114
aVmassive
p3115
aVchkd
p3116
aVionlyflyblue
p3117
aVdontflythem
p3118
aVspeak
p3119
aVgratitude
p3120
aVstrong
p3121
aVpersonable
p3122
aVflierfriendly
p3123
aVnorahm
p3124
aVflexible
p3125
aVdozens
p3126
aVwarmth
p3127
aVfriendlyfriday
p3128
aVpartnership
p3129
aVfamilies
p3130
aVbeloved
p3131
aVrelaxing
p3132
aVconcerning
p3133
aVmadhouse
p3134
aVcatering
p3135
aVlauderdale
p3136
aVniece
p3137
aVstrollers
p3138
aVapplied
p3139
aVgnv
p3140
aVpublicly
p3141
aVadress
p3142
aVsquawking
p3143
aVblumanity
p3144
aVair
p3145
aVaim
p3146
aVgng
p3147
aVapplies
p3148
aVproperty
p3149
aVvegetarian
p3150
aVlaunched
p3151
aVmistake
p3152
aVstink
p3153
aVcont
p3154
aVconv
p3155
aVsticker
p3156
aVdumped
p3157
aVmichele
p3158
aVcond
p3159
aVconf
p3160
aVunreachable
p3161
aVconn
p3162
aVreuse
p3163
aVwhiny
p3164
aVconfirmed
p3165
aVdescent
p3166
aVperform
p3167
aVreativation
p3168
aVsynch
p3169
aVincorrectly
p3170
aVamericanair
p3171
aVwheel
p3172
aVlile
p3173
aVswell
p3174
aVhang
p3175
aVrain
p3176
aVhand
p3177
aVcathy
p3178
aVnix
p3179
aVbaitandswitch
p3180
aVblamed
p3181
aVnit
p3182
aVvermont
p3183
aVkept
p3184
aVwhereby
p3185
aVthy
p3186
aVthx
p3187
aVthu
p3188
aVmin
p3189
aVeps
p3190
aVcompartments
p3191
aVtho
p3192
aVskillful
p3193
aVclient
p3194
aVmusical
p3195
aVtraditions
p3196
aVquoted
p3197
aVphoto
p3198
aVsilverstatus
p3199
aVtaxies
p3200
aVworstever
p3201
aVb787
p3202
aVunaccpetable
p3203
aVthanks
p3204
aVvictim
p3205
aVadding
p3206
aVdisspointed
p3207
aVgooutofbusiness
p3208
aVreuniting
p3209
aVpassive
p3210
aVshout
p3211
aVspread
p3212
aVboard
p3213
aVfares
p3214
aVvanity
p3215
aVscreakjmf
p3216
aVusable
p3217
aVrno
p3218
aVcapt
p3219
aVintercom
p3220
aVprogressed
p3221
aVrnd
p3222
aVarab
p3223
aVcelebrates
p3224
aVbastards
p3225
aVrnp
p3226
aVbdsm
p3227
aVhogs
p3228
aVnight
p3229
aVreassign
p3230
aVsecurity
p3231
aVaccts
p3232
aVthingsishouldknow
p3233
aVhonored
p3234
aVsends
p3235
aVborn
p3236
aVhassle
p3237
aVleanin
p3238
aVbora
p3239
aVconfusing
p3240
aVjetblueblues
p3241
aVhumor
p3242
aVphenomenal
p3243
aVunavoidable
p3244
aVdisconnects
p3245
aVcomments
p3246
aVdenied
p3247
aVbeating
p3248
aVbadcustomerexperience
p3249
aVcolumbus
p3250
aVplt
p3251
aVpls
p3252
aVgeez
p3253
aVmarketing
p3254
aVplebes
p3255
aVplz
p3256
aVconstructive
p3257
aVangering
p3258
aVkthxbai
p3259
aVpeer
p3260
aVpln
p3261
aVpost
p3262
aVgears
p3263
aVobj
p3264
aVmonths
p3265
aVhorizon
p3266
aVsoundofmusic
p3267
aVdilemma
p3268
aVawe1701
p3269
aVwasting
p3270
aVpays
p3271
aVseetonight
p3272
aVdelighted
p3273
aVmybday
p3274
aVf3kxb8
p3275
aVworstservice
p3276
aVguardia
p3277
aVshuttles
p3278
aVwah
p3279
aVsegment
p3280
aVavailable
p3281
aVwaa
p3282
aVpayment
p3283
aVaccordingly
p3284
aVua230
p3285
aViatanbul
p3286
aVquirky
p3287
aVwat
p3288
aVjetbluehatesbtv
p3289
aVlowest
p3290
aVstndby
p3291
aVsnowy
p3292
aVbecoming
p3293
aVelderly
p3294
aVtrue
p3295
aVreset
p3296
aVresponding
p3297
aVisis
p3298
aVwhyy
p3299
aVbraved
p3300
aVprds
p3301
aVmtn
p3302
aVemotional
p3303
aVinquiring
p3304
aVmtg
p3305
aVpromises
p3306
aVmedication
p3307
aVhotter
p3308
aVflat
p3309
aVisrael
p3310
aVebhset
p3311
aVpromised
p3312
aVusairwaysfailscustomers
p3313
aVmold
p3314
aVphysical
p3315
aVprefference
p3316
aVdying
p3317
aVdisloyal
p3318
aVreality
p3319
aVholding
p3320
aVmisleading
p3321
aVtest
p3322
aVjoni
p3323
aVua1002
p3324
aVchging
p3325
aVbrothers
p3326
aVclosepwcs
p3327
aVwelcome
p3328
aVupdate
p3329
aVwalton
p3330
aVreaccommodation
p3331
aVfunerals
p3332
aVaa76
p3333
aVfendforyourself
p3334
aVcheated
p3335
aVhemophilia
p3336
aVinflght
p3337
aVcheaper
p3338
aVloyal
p3339
aVlineup
p3340
aVbasically
p3341
aVconcept
p3342
aVswitched
p3343
aVdance
p3344
aVglobal
p3345
aVsittingonthetarmac
p3346
aVgrateful
p3347
aVbattle
p3348
aVroanoke
p3349
aVsupposedly
p3350
aVsomthing
p3351
aVzone
p3352
aVhonoring
p3353
aVcompensate
p3354
aVpermanently
p3355
aVterror
p3356
aVsouthwest
p3357
aVcharles
p3358
aVhannah
p3359
aVassholes
p3360
aVa18
p3361
aVtoyingwithouremotions
p3362
aVvegan
p3363
aVhugee
p3364
aVemergencies
p3365
aVautomobiles
p3366
aVfirststari
p3367
aVvegas
p3368
aVtrouble
p3369
aVblast
p3370
aVcarta
p3371
aVguc
p3372
aVletsgo
p3373
aVlatinamerican
p3374
aVgun
p3375
aVgum
p3376
aVsozldj
p3377
aVguitars
p3378
aVguy
p3379
aVwoven
p3380
aVpostcode
p3381
aVbrave
p3382
aVregret
p3383
aVbravo
p3384
aVdiscover
p3385
aVfuckoff
p3386
aVprofessionalism
p3387
aVcost
p3388
aVhts
p3389
aVflightfail
p3390
aVhelpless
p3391
aVrough
p3392
aVpple
p3393
aVcargo
p3394
aVcurse
p3395
aVappear
p3396
aVassistance
p3397
aVshares
p3398
aVuniform
p3399
aVyourphonesystemsucks
p3400
aVshared
p3401
aVconffgkxv5
p3402
aVcantlogoutofunitedwifi
p3403
aVsatisfy
p3404
aVsupporting
p3405
aVunsure
p3406
aVfouty
p3407
aVpeeled
p3408
aVdownloaded
p3409
aVgrabbed
p3410
aVhoops
p3411
aVappears
p3412
aVchange
p3413
aVsending
p3414
aVincoming
p3415
aVflight2149
p3416
aVleeway
p3417
aVexiting
p3418
aVtrial
p3419
aVusually
p3420
aVpillow
p3421
aVmontreal
p3422
aVdkyde6
p3423
aVregardless
p3424
aVextra
p3425
aVunprofessionally
p3426
aVmarked
p3427
aVsincerely
p3428
aVsnowboard
p3429
aVpenalized
p3430
aVembarrassing
p3431
aVrarely
p3432
aVmobil
p3433
aVmarket
p3434
aVchallenging
p3435
aVflavors
p3436
aVjan
p3437
aVprove
p3438
aVunimpressed
p3439
aVretweeted
p3440
aVprovo
p3441
aVcavalli
p3442
aVlive
p3443
aVwonderfully
p3444
aVselects
p3445
aVbadpolicy
p3446
aVnotmyfault
p3447
aVentrance
p3448
aVitscold
p3449
aVclub
p3450
aVclue
p3451
aVboycott
p3452
aVorganizations
p3453
aVgraphic
p3454
aVslogan
p3455
aVmaarten
p3456
aVcar
p3457
aVcap
p3458
aVniggaz
p3459
aVjac
p3460
aVcak
p3461
aVvalentinesday
p3462
aVlabeled
p3463
aVincidents
p3464
aVinferior
p3465
aVcal
p3466
aVcac
p3467
aVcab
p3468
aVcae
p3469
aVheart
p3470
aVdedicated
p3471
aVgrassy
p3472
aVexpanding
p3473
aVbridesmaid
p3474
aVheard
p3475
aVspk
p3476
aVvallarta
p3477
aVclothing
p3478
aVnotfair
p3479
aVspf
p3480
aVbankrupt
p3481
aVfortunately
p3482
aVunsat
p3483
aVfreezes
p3484
aVlounge
p3485
aVallowable
p3486
aVdrunkpilots
p3487
aVnonstop
p3488
aVeconomy
p3489
aVproduct
p3490
aVundrstnd
p3491
aVpqd
p3492
aVescalate
p3493
aVsouthern
p3494
aVpqm
p3495
aVdisgusted
p3496
aVproduce
p3497
aVislands
p3498
aVlifting
p3499
aVvomited
p3500
aVremember
p3501
aVhiggs
p3502
aVwhenever
p3503
aVcustomerexperience
p3504
aVautomatically
p3505
aVretrieved
p3506
aVkurt
p3507
aVtypical
p3508
aVtagged
p3509
aVserving
p3510
aVtkts
p3511
aVindeed
p3512
aVforfeit
p3513
aVdisplayed
p3514
aVsoc
p3515
aVexpedited
p3516
aVbrain
p3517
aVtablets
p3518
aVnitrogen
p3519
aVmanagers
p3520
aVcold
p3521
aVbirds
p3522
aVrosetta
p3523
aVigiveup
p3524
aVacknowledge
p3525
aVselves
p3526
aVbirthdays
p3527
aVforms
p3528
aVwindow
p3529
aVwinnipeg
p3530
aVnorway
p3531
aVmarshall
p3532
aVonholdwith
p3533
aVcorrespondence
p3534
aVnoo
p3535
aVgassing
p3536
aValist
p3537
aVsol
p3538
aVtails
p3539
aVhalf
p3540
aVrecap
p3541
aVnov
p3542
aVdiscuss
p3543
aVnor
p3544
aVwont
p3545
aVthankful
p3546
aVjanuary
p3547
aVnothappy
p3548
aVdrop
p3549
aVwemosaictogether
p3550
aVwong
p3551
aVcheatcustomers
p3552
aVentirely
p3553
aVunloaded
p3554
aVem
p3555
aVel
p3556
aVen
p3557
aVsignificantly
p3558
aVed
p3559
aVea
p3560
aVyeah
p3561
aVec
p3562
aVeb
p3563
aVchallenges
p3564
aVhospice
p3565
aVsandwich
p3566
aVey
p3567
aVex
p3568
aVeu
p3569
aVokay
p3570
aVhappen
p3571
aVcalling
p3572
aVep
p3573
aVes
p3574
aVfu
p3575
aVirons
p3576
aVshown
p3577
aVaccomplish
p3578
aVspace
p3579
aVirony
p3580
aVsitters
p3581
aVincrease
p3582
aVnavigating
p3583
aVritacomo
p3584
aVreceiving
p3585
aVviable
p3586
aVua1151
p3587
aVenroute
p3588
aVcars
p3589
aVcart
p3590
aVaa4285
p3591
aVlugging
p3592
aVlmk
p3593
aVe9
p3594
aVinevitable
p3595
aVcard
p3596
aVcare
p3597
aVcycles
p3598
aVselections
p3599
aVtransition
p3600
aVfb
p3601
aVhonest
p3602
aVlindsey
p3603
aVinvitation
p3604
aVpromotion
p3605
aVentrusted
p3606
aVsupport
p3607
aVsarcastically
p3608
aVaa3390
p3609
aVinitial
p3610
aVimpossibly
p3611
aVxm
p3612
aVcpus
p3613
aVxd
p3614
aVyourself
p3615
aVxx
p3616
aVrqstd
p3617
aVdirectly
p3618
aVimpossible
p3619
aVmessage
p3620
aVdrove
p3621
aVtomorrow
p3622
aVxt
p3623
aVsize
p3624
aVsheer
p3625
aVchecked
p3626
aVleinenkugels
p3627
aVcaught
p3628
aVawe474
p3629
aVguiltypleasures
p3630
aVremotely
p3631
aVcarousel
p3632
aVmilage
p3633
aVfriend
p3634
aVthaw
p3635
aVflighted
p3636
aVcourier
p3637
aVuninformed
p3638
aVpittsburgh
p3639
aVappreciates
p3640
aVpnr
p3641
aVjane
p3642
aVx2
p3643
aVappreciated
p3644
aVbecuz
p3645
aVscalpel
p3646
aVprofessionals
p3647
aVtelevision
p3648
aVtravis
p3649
aVtransferred
p3650
aVthanksm
p3651
aVspiced
p3652
aVg6455c
p3653
aVbrowser
p3654
aVportsmouth
p3655
aVsurname
p3656
aVinvestors
p3657
aVremained
p3658
aVpremier
p3659
aVshouldwearmasks
p3660
aVbreakfast
p3661
aVrecover
p3662
aVtravelproblems
p3663
aVoffering
p3664
aVbashing
p3665
aVterrific
p3666
aVequipment
p3667
aVtckt
p3668
aVonline
p3669
aVtelephones
p3670
aVbegin
p3671
aVsledge
p3672
aVprice
p3673
aVkeepit100
p3674
aVpricy
p3675
aVamerica
p3676
aVmichelle
p3677
aVforever
p3678
aVinsulting
p3679
aVreform
p3680
aVtalents
p3681
aVskytrax
p3682
aVmrn
p3683
aVsunset
p3684
aVpattern
p3685
aVprofessional
p3686
aVresch
p3687
aVtypically
p3688
aVfiling
p3689
aVgerman
p3690
aVmaint
p3691
aVfifty
p3692
aVdiscovered
p3693
aVmaine
p3694
aVfifth
p3695
aVgeography
p3696
aVhyperlinked
p3697
aVupgrade
p3698
aVtitle
p3699
aVproportion
p3700
aVua1069
p3701
aVmisjudging
p3702
aVua4689
p3703
aVfroward
p3704
aVflight353
p3705
aVcongratulations
p3706
aVtruly
p3707
aVflight1797
p3708
aVblacklivesmatter
p3709
aVoldplanes
p3710
aVcelebrate
p3711
aVsoreback
p3712
aVmanilla
p3713
aVleather
p3714
aVisnt
p3715
aVlosers
p3716
aVempathizes
p3717
aVhusband
p3718
aVunitedairlinessux
p3719
aVburst
p3720
aVphysically
p3721
aVhungupnohelp
p3722
aVelected
p3723
aVactively
p3724
aVasleep
p3725
aVmilwaukee
p3726
aVsport
p3727
aVconcern
p3728
aVloudspeaker
p3729
aVstaffed
p3730
aVtroubadour
p3731
aVherndon
p3732
aVthurs
p3733
aVcolours
p3734
aVnmaryland
p3735
aVbreavement
p3736
aVstaffer
p3737
aVherbal
p3738
aVwhipped
p3739
aVtravels
p3740
aVnotice
p3741
aVblame
p3742
aVhurts
p3743
aVarticle
p3744
aVlieflat
p3745
aVsavr
p3746
aVglitchy
p3747
aVinstallation
p3748
aVfliers
p3749
aVvoicemail
p3750
aVmons
p3751
aVdividendsmember
p3752
aVwheels
p3753
aVcomes
p3754
aVnearby
p3755
aVoriginating
p3756
aVsolving
p3757
aVmadness
p3758
aVusurious
p3759
aVhve
p3760
aVdispatch
p3761
aVepipens
p3762
aVlearning
p3763
aValreadyrebookedonce
p3764
aVangryairtravel
p3765
aVolives
p3766
aVgetphilz
p3767
aVpoorcustomerservice
p3768
aVcares
p3769
aVlawsuit
p3770
aVua3785
p3771
aVinformed
p3772
aVcared
p3773
aVpunished
p3774
aVvrm
p3775
aVtoss
p3776
aVsked
p3777
aVcaren
p3778
aVexhaustion
p3779
aVsystems
p3780
aVus5268
p3781
aVstraying
p3782
aVi6ep18
p3783
aVcesspool
p3784
aVnikon
p3785
aVrubs
p3786
aVbagsflyfreebutnotwithme
p3787
aVhusain
p3788
aVbout
p3789
aVcountless
p3790
aVus628
p3791
aVwinks
p3792
aVua1665
p3793
aVaccommodating
p3794
aVhealthbenefitsofplants
p3795
aVtrick
p3796
aVflightling
p3797
aVinflatable
p3798
aVmarshaled
p3799
aVpleads
p3800
aVstewardess
p3801
aVzukes
p3802
aVheels
p3803
aVnoloveforsurfers
p3804
aVship
p3805
aVworry
p3806
aVfulfilled
p3807
aVdevelop
p3808
aVinquire
p3809
aVmedia
p3810
aVfreecomedyshow
p3811
aVya
p3812
aVinquiry
p3813
aVcoworkers
p3814
aVlite
p3815
aVdocument
p3816
aVextravaganza
p3817
aVinvestigated
p3818
aVrobocalls
p3819
aVclosest
p3820
aVtld
p3821
aVreigning
p3822
aVua1270
p3823
aVcomplained
p3824
aVhella
p3825
aVburrito
p3826
aVdaytona
p3827
aVcharges
p3828
aVcharger
p3829
aVus1562
p3830
aVbreezy
p3831
aVsevere
p3832
aVbreeze
p3833
aVpoorlyhandled
p3834
aValleviate
p3835
aVcoordinate
p3836
aVhiremorepeople
p3837
aVcharged
p3838
aVtaxi
p3839
aVdirectflights
p3840
aVredirects
p3841
aVua116
p3842
aVnoah
p3843
aVemerald
p3844
aVtoby
p3845
aVua118
p3846
aVvaluable
p3847
aVrestrooms
p3848
aVua14
p3849
aVgreetings
p3850
aVmeetthefleet
p3851
aVtouch
p3852
aVgreetingz
p3853
aVdeath
p3854
aVlegitimately
p3855
aVeuros
p3856
aVthinking
p3857
aVdaydreaming
p3858
aVsenseless
p3859
aVrefurbish
p3860
aVdesktop
p3861
aVtreatment
p3862
aVversa
p3863
aVcb
p3864
aVdisproportionate
p3865
aVreal
p3866
aVhover
p3867
aVamm
p3868
aVfrown
p3869
aVspectacular
p3870
aVrules
p3871
aVfarelock
p3872
aVdiscontinue
p3873
aVgonna
p3874
aVamy
p3875
aVpleasecomeback
p3876
aVoutsource
p3877
aVwewillsee
p3878
aVpolitely
p3879
aVusing
p3880
aVpsp
p3881
aVexecution
p3882
aVrebecca
p3883
aVamt
p3884
aVrear
p3885
aVirrlcd
p3886
aVbecuase
p3887
aVpounds
p3888
aVgjt
p3889
aVgreeting
p3890
aVmiracle
p3891
aVdontmakemebeg
p3892
aVbenefit
p3893
aVskycap
p3894
aVus728
p3895
aVoverbooked
p3896
aVtwelve
p3897
aVverbal
p3898
aVexposed
p3899
aVwaitinginphilly
p3900
aVhacks
p3901
aVoscars
p3902
aVaccommodates
p3903
aVfairs
p3904
aVairside
p3905
aVoakland
p3906
aVshelleyandmarcrock
p3907
aVflight838
p3908
aVrecorded
p3909
aVnolove
p3910
aVmakingloveoutofnothingatall
p3911
aVwillie
p3912
aVftl
p3913
aVtixs
p3914
aVbusiness
p3915
aVasap
p3916
aVequivalent
p3917
aVvolkswagen
p3918
aVcredits
p3919
aVhectic
p3920
aVexciting
p3921
aVthrow
p3922
aVouttage
p3923
aVcomparison
p3924
aVcentral
p3925
aVsre
p3926
aVchrishasmadeusblush
p3927
aVflightnightmare
p3928
aVfell
p3929
aVgreatly
p3930
aVunderway
p3931
aVextralight
p3932
aVreferred
p3933
aVbackup
p3934
aVbitty
p3935
aVoutlook
p3936
aVtweetin
p3937
aVinclusion
p3938
aVifeeldumb
p3939
aVyoud
p3940
aVsnapchat
p3941
aVearring
p3942
aVheated
p3943
aVoperator
p3944
aVaadavantage
p3945
aVyout
p3946
aVpamper
p3947
aVloc
p3948
aVlog
p3949
aVprepare
p3950
aVaa199
p3951
aVassumed
p3952
aVmilehighselfieclub
p3953
aVlol
p3954
aVlos
p3955
aVcats
p3956
aVsaveface
p3957
aVlow
p3958
aVlot
p3959
aVlou
p3960
aVallergic
p3961
aViwantcoffee
p3962
aVgroan
p3963
aVpetty
p3964
aVdelayed
p3965
aVamericanforlife
p3966
aVtrying
p3967
aVhire
p3968
aVfraud
p3969
aVdominican
p3970
aVcirculation
p3971
aVinteriors
p3972
aVbucket
p3973
aVmiguel
p3974
aVtones
p3975
aVlowdown
p3976
aVabcnews
p3977
aVnogood
p3978
aVpssngrs
p3979
aVdescribe
p3980
aVmoved
p3981
aVsales
p3982
aVscanned
p3983
aVnbr
p3984
aVmoves
p3985
aVhospitals
p3986
aVnerd
p3987
aVn33103
p3988
aVcredibility
p3989
aVstorage
p3990
aVanarchy
p3991
aVintercontinental
p3992
aVvalid
p3993
aVtelaviv
p3994
aVworstairlineinamerica
p3995
aVaa1691
p3996
aVyow
p3997
aVwoeful
p3998
aVforcing
p3999
aVhour20delay
p4000
aVnobaggagefees
p4001
aVpoor
p4002
aVneedtogethome
p4003
aVpoop
p4004
aVfsqthg
p4005
aVineligible
p4006
aVtime
p4007
aVdrift
p4008
aVpeas
p4009
aVpodium
p4010
aVpeak
p4011
aVcoverage
p4012
aVupgd
p4013
aVbuilding
p4014
aVapathy
p4015
aVfeelsgood
p4016
aVseatback
p4017
aVcity
p4018
aVprofits
p4019
aVsgf
p4020
aVnosedived
p4021
aVoverseas
p4022
aVtomorrows
p4023
aVceases
p4024
aVnewburgh
p4025
aVsplitting
p4026
aVmonth
p4027
aVthoughtful
p4028
aVmp3
p4029
aVmanaged
p4030
aVus3825
p4031
aVcarpet
p4032
aVdreadful
p4033
aVreferring
p4034
aVauckland
p4035
aVwyoming
p4036
aVchartering
p4037
aVua276
p4038
aVneedcoffee
p4039
aVhorror
p4040
aVselfies
p4041
aVbalancing
p4042
aVdecide
p4043
aVonholdfordays
p4044
aVsegway
p4045
aVfrequentflyerappreciates
p4046
aVheaven
p4047
aVlouis
p4048
aVmild
p4049
aVtindertips
p4050
aVcircuit
p4051
aVnooption
p4052
aVsmith
p4053
aVcookies
p4054
aVinstagram
p4055
aVcolossal
p4056
aVstreets
p4057
aVunheard
p4058
aVcasual
p4059
aVbass
p4060
aVapologizes
p4061
aVconsumers
p4062
aVwitnessed
p4063
aVbillmelate
p4064
aVwhatcustomerservice
p4065
aVus2065
p4066
aVapologized
p4067
aVcertificates
p4068
aVlearned
p4069
aVus1799
p4070
aVdeborah
p4071
aVmultinational
p4072
aVhahaha
p4073
aVmodify
p4074
aVanswers
p4075
aVtracks
p4076
aVanticipation
p4077
aVcustomerservicenot
p4078
aVcvg
p4079
aVonhold
p4080
aVbelize
p4081
aVarena
p4082
aVsanfrancisco
p4083
aVahead
p4084
aVinspired
p4085
aVexceptionally
p4086
aVfired
p4087
aVamount
p4088
aVadvertising
p4089
aVtherofo
p4090
aVheartbroken
p4091
aVhime
p4092
aVhappyflight
p4093
aVflyfi
p4094
aVdadeland
p4095
aVshuffle
p4096
aVfamily
p4097
aVpartnering
p4098
aVrequiring
p4099
aVresoled
p4100
aVcosmetic
p4101
aVglitch
p4102
aVlagos
p4103
aVaimed
p4104
aVtrained
p4105
aVteach
p4106
aVgoingforgreat
p4107
aVtakes
p4108
aVcontains
p4109
aVpraised
p4110
aVmysterious
p4111
aVinjury
p4112
aVaircargo
p4113
aVdaddyshome
p4114
aVdelaying
p4115
aVyuck
p4116
aVjetbluebos
p4117
aVstucked
p4118
aVleastthebeverageswillbecold
p4119
aVvm
p4120
aVexcuse
p4121
aVbroke
p4122
aVplatitudes
p4123
aVhurry
p4124
aVhelped
p4125
aVaa1061
p4126
aVsweeps
p4127
aVacts
p4128
aVoffended
p4129
aVnine
p4130
aVhardtodo
p4131
aVhistory
p4132
aVbffs
p4133
aVf6
p4134
aVaftr
p4135
aVvoided
p4136
aVpushed
p4137
aVphrase
p4138
aVemb145
p4139
aVlacks
p4140
aVyouredoingitwrong
p4141
aVovercharging
p4142
aVpassbook
p4143
aVutilize
p4144
aVstayed
p4145
aVunlucky
p4146
aVmenus
p4147
aVunitedagainstunited
p4148
aVidaho
p4149
aVfr
p4150
aVft
p4151
aVtried
p4152
aVrude
p4153
aVanyonethere
p4154
aVfa
p4155
aVtries
p4156
aVfc
p4157
aVff
p4158
aVfi
p4159
aVinconceivable
p4160
aVfl
p4161
aValsonodrinkcartcomingaround
p4162
aVfo
p4163
aVroundtrip
p4164
aVfallen
p4165
aVdocumentation
p4166
aVpho
p4167
aVovernight
p4168
aVanytime
p4169
aVnutsaboutsouthwest
p4170
aVmktg
p4171
aVdread
p4172
aVinline
p4173
aVdream
p4174
aVege
p4175
aVding
p4176
aVhelp
p4177
aVexhorbitantfees
p4178
aVgirlsweekend
p4179
aVadvised
p4180
aVsoon
p4181
aVbcuz
p4182
aVheld
p4183
aVtheworst
p4184
aVffl
p4185
aVcommitted
p4186
aVhell
p4187
aValittle
p4188
aVmarkie
p4189
aVuvf
p4190
aVthebachelor
p4191
aVbotched
p4192
aVmites
p4193
aVteeming
p4194
aVactually
p4195
aVbham
p4196
aVcomenity
p4197
aVfriendliest
p4198
aVpeanuts
p4199
aVus2218
p4200
aVmiatoiah
p4201
aVfool
p4202
aVevening
p4203
aVyo
p4204
aVdim
p4205
aVceo
p4206
aVlovesongfriday
p4207
aVbiceps
p4208
aVexps
p4209
aVeventprof
p4210
aVvomit
p4211
aVstarbucks
p4212
aVfoot
p4213
aVyr
p4214
aVdesperately
p4215
aVbagage
p4216
aVfaire
p4217
aVsundays
p4218
aVoccasions
p4219
aVpayed
p4220
aVife
p4221
aVstopped
p4222
aVcodeshare
p4223
aVdulles
p4224
aVheavy
p4225
aVrestless
p4226
aVfees
p4227
aVdia
p4228
aVinfinity
p4229
aVbeyond
p4230
aVabsurdity
p4231
aVevent
p4232
aVphn
p4233
aVrefueled
p4234
aVgagent
p4235
aVphl
p4236
aVdouglas
p4237
aVsafety
p4238
aVflt1533
p4239
aVissue
p4240
aVn26902
p4241
aVass
p4242
aVringling
p4243
aVua4232
p4244
aVpuj
p4245
aVphf
p4246
aVreason
p4247
aVbase
p4248
aVase
p4249
aVstraightened
p4250
aVearliest
p4251
aVthxu
p4252
aVua4727
p4253
aVfirstclass
p4254
aVfoodallergy
p4255
aVdiffused
p4256
aVunresolved
p4257
aVterrible
p4258
aVterribly
p4259
aVamerican
p4260
aVphx
p4261
aVexpecting
p4262
aVkung
p4263
aVassign
p4264
aVattendent
p4265
aVpartnerships
p4266
aVprobability
p4267
aVsfotobos
p4268
aVunaccompanied
p4269
aVfucked
p4270
aVtalked
p4271
aVeffortless
p4272
aVmiss
p4273
aVextenuating
p4274
aVhorse
p4275
aVairborne
p4276
aVwonderful
p4277
aVbirder
p4278
aVhindered
p4279
aVnigeria
p4280
aVhundred
p4281
aVbanana
p4282
aVinsure
p4283
aVselling
p4284
aVstorm
p4285
aVtrapped
p4286
aVnorma
p4287
aVjamie
p4288
aVtrbl
p4289
aVauthors
p4290
aVnewlifetimecustomer
p4291
aValbums
p4292
aVnoaccountability
p4293
aVassaulted
p4294
aVkindly
p4295
aVstl
p4296
aVanticipate
p4297
aVimpersonal
p4298
aVsti
p4299
aVsqueaks
p4300
aVstt
p4301
aVbride
p4302
aVheartlanta
p4303
aVstore
p4304
aVnevergettinghome
p4305
aVkindle
p4306
aVdtw
p4307
aVdtv
p4308
aVnewborns
p4309
aVdeciding
p4310
aVcostarica
p4311
aVwasnt
p4312
aVurgently
p4313
aVrandomly
p4314
aVjuice
p4315
aVsubstantial
p4316
aVphilly
p4317
aVvulnerable
p4318
aVnickeled
p4319
aVlie
p4320
aVtyvm
p4321
aVoutbound
p4322
aVretracted
p4323
aVlil
p4324
aVicecream
p4325
aVlin
p4326
aVcave
p4327
aVlit
p4328
aVlip
p4329
aVuseless
p4330
aVaggravating
p4331
aVheadphone
p4332
aVaired
p4333
aVtowards
p4334
aVfrauds
p4335
aVquote
p4336
aVbadairline
p4337
aVfreddie
p4338
aVhired
p4339
aVexperiences
p4340
aVaires
p4341
aVeaten
p4342
aVkat
p4343
aVragandisney
p4344
aVkay
p4345
aVkax
p4346
aVapproved
p4347
aVworkhard
p4348
aVdevastated
p4349
aVmobile
p4350
aVunreasonable
p4351
aVdrawing
p4352
aVbze
p4353
aVclean
p4354
aVnothelpful
p4355
aVshoutout
p4356
aVbarklays
p4357
aVstunned
p4358
aVcowgirl
p4359
aVbooze
p4360
aVregisters
p4361
aVcerts
p4362
aVmoneynotspentonunited
p4363
aVpsngrs
p4364
aVhardcase
p4365
aVcebu
p4366
aVflightd
p4367
aVnorthern
p4368
aVparanoid
p4369
aVsofly
p4370
aVrudest
p4371
aVflightn
p4372
aVflights
p4373
aVflightr
p4374
aVyouretheworst
p4375
aVpretty
p4376
aVtomrw
p4377
aVcircle
p4378
aVstrandusindenver
p4379
aVmeanwhile
p4380
aVzambia
p4381
aVtrees
p4382
aVua6002
p4383
aVfamous
p4384
aVfeels
p4385
aVpretending
p4386
aVcompeting
p4387
aVreferencing
p4388
aVrandomactsofcorporategreed
p4389
aVmkwlkr
p4390
aVbadge
p4391
aVdiamond
p4392
aVposting
p4393
aVgloves
p4394
aVflight7
p4395
aVwheresthepilot
p4396
aVcourteous
p4397
aVcantblametheweather
p4398
aVondemand
p4399
aVthrowing
p4400
aVseats
p4401
aVworstthingever
p4402
aVculture
p4403
aVlizaapproved
p4404
aVclose
p4405
aVshouldhaveflowndelta
p4406
aVlocals
p4407
aVtatiana
p4408
aVhorrid
p4409
aVpictures
p4410
aVwow
p4411
aVwoo
p4412
aVwon
p4413
aVgrandparents
p4414
aVprobably
p4415
aVconditions
p4416
aVpiss
p4417
aVcondescension
p4418
aVadv
p4419
aVmakeup
p4420
aVdani
p4421
aVmissing
p4422
aVwaspaid
p4423
aVranked
p4424
aVstmt
p4425
aVdistinguish
p4426
aVleague
p4427
aVuseable
p4428
aVpgfryz
p4429
aVmega
p4430
aVsecrets
p4431
aVsensitive
p4432
aVtsanightmare
p4433
aVfeeltheheat
p4434
aVbuzz
p4435
aVbots
p4436
aVgma
p4437
aVliked
p4438
aVcharlotte
p4439
aVbattery
p4440
aVmanners
p4441
aVwhatever
p4442
aVspotting
p4443
aVlikes
p4444
aVprechk
p4445
aVnewburg
p4446
aVstamp
p4447
aVc19
p4448
aVbuisness
p4449
aVdamn
p4450
aVmaintenance
p4451
aVpreventable
p4452
aVtopnews
p4453
aVempty
p4454
aVwinterstorm
p4455
aVdialogue
p4456
aVlived
p4457
aVpartly
p4458
aVmistakefurious
p4459
aVcitizen
p4460
aVdeter
p4461
aVanthony
p4462
aVlives
p4463
aVus643
p4464
aVc11
p4465
aVfurrow
p4466
aVpact
p4467
aVutmost
p4468
aVlook
p4469
aVfleek
p4470
aVcanadian
p4471
aVsoulandinspiration
p4472
aVgovernor
p4473
aVnght
p4474
aVpace
p4475
aVought
p4476
aVdeplane
p4477
aVfleet
p4478
aVmitchell
p4479
aVguide
p4480
aVloop
p4481
aVpack
p4482
aVuncompromising
p4483
aVdetailed
p4484
aVcomping
p4485
aVcorpgreed
p4486
aVreads
p4487
aVready
p4488
aVnvr
p4489
aValbany
p4490
aVfedora
p4491
aVanymore
p4492
aVgrant
p4493
aVbelong
p4494
aVchecking
p4495
aVgrand
p4496
aVgreatjob
p4497
aVconflict
p4498
aVsham
p4499
aVleavingtomm
p4500
aVindianapolis
p4501
aVtemporary
p4502
aVcurbside
p4503
aVbonus
p4504
aVlayovers
p4505
aVoverweight
p4506
aVjetbridge
p4507
aVunitedairline
p4508
aVuser
p4509
aVdecency
p4510
aVbrussels
p4511
aVfakesincerity
p4512
aVgsp
p4513
aVanxious
p4514
aVhaul
p4515
aVobviously
p4516
aVgsa
p4517
aVcalibrated
p4518
aVbearable
p4519
aVlfw15
p4520
aVconsistency
p4521
aVoverbook
p4522
aVgso
p4523
aVambassador
p4524
aVtravelhelp
p4525
aVreviewed
p4526
aVroasted
p4527
aVstartups
p4528
aVpraying
p4529
aVtick
p4530
aVfiancee
p4531
aVguaranteed
p4532
aVlivethelegend
p4533
aVhavin
p4534
aVremaining
p4535
aVsprinted
p4536
aVmarch
p4537
aVlacking
p4538
aVevaluate
p4539
aVmaybeijustlost
p4540
aVdubai
p4541
aVgame
p4542
aVwiser
p4543
aVdonuts
p4544
aVoutright
p4545
aVdeactivated
p4546
aVresponsiveness
p4547
aVsignal
p4548
aVliveonfox17
p4549
aVdonna
p4550
aVpopular
p4551
aVswooped
p4552
aVterminology
p4553
aVdeicing
p4554
aVsaturdays
p4555
aVincedentals
p4556
aVurgent
p4557
aVexperienced
p4558
aVisthisyourfirsttry
p4559
aVteco
p4560
aVdelivered
p4561
aVdescribing
p4562
aVexec
p4563
aVprovidence
p4564
aVpounding
p4565
aVslash
p4566
aVbellagio
p4567
aVforgets
p4568
aVminimal
p4569
aVjournalist
p4570
aVrun
p4571
aVua484
p4572
aVbooklet
p4573
aVprocessing
p4574
aVweappreciateyou
p4575
aVstep
p4576
aVcyberattack
p4577
aVabroad
p4578
aVfaith
p4579
aVhrl
p4580
aVwouldnt
p4581
aVtracing
p4582
aVbgm
p4583
aVaye
p4584
aVbgr
p4585
aVidk
p4586
aVmessaging
p4587
aVsilence
p4588
aVle2v9d
p4589
aVseeing
p4590
aVrefundprocedurenottoopainful
p4591
aVmisbehavior
p4592
aVdude
p4593
aVkeepingtraditionsalive
p4594
aVnonsense
p4595
aVdissatisfaction
p4596
aVcarlton
p4597
aVsmelly
p4598
aVua51
p4599
aVideserveareward
p4600
aVineedcoffee
p4601
aVua57
p4602
aVvineyard
p4603
aVilookyoung
p4604
aVplacing
p4605
aVaccountability
p4606
aVcoathanging
p4607
aVswadiversity
p4608
aVtul
p4609
aVreflight
p4610
aVua3576
p4611
aVregistered
p4612
aVinept
p4613
aVcalgary
p4614
aVthanksamericanairlines
p4615
aVproperly
p4616
aVhail
p4617
aVamateurish
p4618
aVinfo
p4619
aVpersisting
p4620
aVute
p4621
aVlasttweetaboutthis
p4622
aVbadwebsite
p4623
aVforesight
p4624
aVreactivate
p4625
aVmalik
p4626
aVsimilar
p4627
aVaccessibility
p4628
aVunwise
p4629
aVenquires
p4630
aVamounts
p4631
aVbtwn
p4632
aVnah
p4633
aVapplication
p4634
aVnap
p4635
aVelectrical
p4636
aVrecognition
p4637
aVangrybird
p4638
aVdepartment
p4639
aVfhk2te
p4640
aVhappens
p4641
aVdraw
p4642
aVkansas
p4643
aVregulations
p4644
aVdrag
p4645
aVrefrain
p4646
aVoneworld
p4647
aVreservation
p4648
aVstructure
p4649
aVrequired
p4650
aVresolving
p4651
aVsvc
p4652
aVaa953
p4653
aVairplanemodewason
p4654
aValtonbrownlive
p4655
aVdvt
p4656
aVsvu
p4657
aVrequires
p4658
aVavoid
p4659
aVdvr
p4660
aVgt
p4661
aVkats
p4662
aVtweeter
p4663
aVgf
p4664
aVfarms
p4665
aVgd
p4666
aVga
p4667
aVtweeted
p4668
aVkate
p4669
aVcompact
p4670
aVrhonda
p4671
aVdorns
p4672
aVsuits
p4673
aVnippon
p4674
aVbeareavement
p4675
aVbyebyejetblue
p4676
aVfriendly
p4677
aVnexttime
p4678
aVinfinite
p4679
aVsherocks
p4680
aVgoldentickets
p4681
aVkitty
p4682
aVwave
p4683
aVfacebook
p4684
aVtelling
p4685
aVyourselves
p4686
aVexits
p4687
aVpositions
p4688
aVbutton
p4689
aVcompassionate
p4690
aVmichael
p4691
aVwatered
p4692
aVnoope
p4693
aVassignments
p4694
aVallowabl
p4695
aVbarbara
p4696
aVenforce
p4697
aVpretend
p4698
aVcompensated
p4699
aVgiggled
p4700
aVbogota
p4701
aVboots
p4702
aVwaking
p4703
aVjump
p4704
aVcompensates
p4705
aVtwitterz
p4706
aVpicked
p4707
aVdownload
p4708
aVclick
p4709
aVwylie
p4710
aVteyana
p4711
aVopaque
p4712
aVvalet
p4713
aVunhelpful
p4714
aVrotten
p4715
aVpoles
p4716
aVsouthwestluvsweeps
p4717
aVplaya
p4718
aVxox
p4719
aVnewyork
p4720
aVcommercial
p4721
aVfla
p4722
aVlogout
p4723
aVozs
p4724
aVsdq
p4725
aVdca
p4726
aVkidnapped
p4727
aVdelinquent
p4728
aVvacay
p4729
aVparameters
p4730
aVevenlate
p4731
aVwhispering
p4732
aVgent
p4733
aVgrandcayman
p4734
aVaddresses
p4735
aVairspace
p4736
aVdanger
p4737
aVwin
p4738
aVmanage
p4739
aVdiversion
p4740
aVaddressed
p4741
aVwit
p4742
aVthenewamerican
p4743
aVbacktodelta
p4744
aVsinging
p4745
aVcloud
p4746
aVannounced
p4747
aVcrap
p4748
aVhorribleattitudes
p4749
aVsnoop
p4750
aVremains
p4751
aVaboout
p4752
aVperforms
p4753
aVcamera
p4754
aVhistorically
p4755
aVpopped
p4756
aVexcellentcustomerservice
p4757
aVformally
p4758
aVinconsiderate
p4759
aVecom
p4760
aVtennis
p4761
aVecon
p4762
aVconfused
p4763
aVoverzealous
p4764
aVua5396
p4765
aVappointed
p4766
aVneverflyunited
p4767
aVstafford
p4768
aVwhatfrozenpipes
p4769
aVannouncing
p4770
aVride
p4771
aVua1550
p4772
aVdonut
p4773
aVcrossed
p4774
aVmeet
p4775
aVdrops
p4776
aVpotus
p4777
aVcontrol
p4778
aVn366sw
p4779
aVlinks
p4780
aVworkng
p4781
aVusxlon
p4782
aVe190
p4783
aVpulling
p4784
aVpublicity
p4785
aVwonked
p4786
aVua1088
p4787
aVburroughs
p4788
aVdefective
p4789
aVvibe
p4790
aVlookforwardtoflywithaa
p4791
aVarrangement
p4792
aVlocated
p4793
aVfare
p4794
aVemployee
p4795
aVspvsr
p4796
aVbelongings
p4797
aVspelling
p4798
aVphltolas
p4799
aVunforeseeable
p4800
aVeqp
p4801
aVscoop
p4802
aVaeroport
p4803
aVscoot
p4804
aVnpbhd0
p4805
aVsoftware
p4806
aVavalible
p4807
aVnewamericanstinks
p4808
aVincluding
p4809
aVcruise
p4810
aVmentioned
p4811
aVua3728
p4812
aVpura
p4813
aVbradley
p4814
aVilc0hp
p4815
aVtailfin
p4816
aVauto
p4817
aVonholdforever
p4818
aVaa104
p4819
aVhands
p4820
aVfront
p4821
aVhandy
p4822
aVmasters
p4823
aVuniversity
p4824
aVdobetterjetblue
p4825
aVslide
p4826
aVovercharged
p4827
aVcrossing
p4828
aVshaking
p4829
aVidontwannalivewithoutyourlove
p4830
aVuncaring
p4831
aVunwind
p4832
aVflt803
p4833
aVglobe
p4834
aVaggravated
p4835
aVlololololol
p4836
aVmeasure
p4837
aVseparating
p4838
aVchillpill
p4839
aVspecial
p4840
aVhelpimstuck
p4841
aVentertainment
p4842
aVlowstandards
p4843
aVreboot
p4844
aVricky
p4845
aVrebook
p4846
aVflight1407
p4847
aVcause
p4848
aVinputted
p4849
aVtrashy
p4850
aVeco
p4851
aVhumiliating
p4852
aVhopkins
p4853
aVattending
p4854
aVcompletely
p4855
aVflight6831
p4856
aVprincess
p4857
aVstandbye
p4858
aVhostile
p4859
aVapplications
p4860
aVroute
p4861
aVflorida
p4862
aVmembership
p4863
aVtimes
p4864
aVaustic
p4865
aVtomorro
p4866
aVstandbys
p4867
aVtimed
p4868
aVdiminishes
p4869
aVaustin
p4870
aVdesigned
p4871
aVprospective
p4872
aVmag
p4873
aVswapped
p4874
aVbestairlineever
p4875
aVimproving
p4876
aVpvr
p4877
aVbitch
p4878
aVdrinker
p4879
aVcrazybitch
p4880
aVquality
p4881
aVrmoug15
p4882
aVfella
p4883
aVmanagement
p4884
aVdata
p4885
aVrelations
p4886
aVwhereismybag
p4887
aVattach
p4888
aVreopened
p4889
aVperfectly
p4890
aVfinal
p4891
aVbe4
p4892
aVexactly
p4893
aVapologise
p4894
aVlists
p4895
aVrcd
p4896
aVbadcustomersrvice
p4897
aVnatural
p4898
aVrsw
p4899
aVupdating
p4900
aVcatered
p4901
aVben
p4902
aVbec
p4903
aVbeg
p4904
aVbed
p4905
aVsr
p4906
aVrob
p4907
aVreferral
p4908
aVbet
p4909
aVlightly
p4910
aVtabs
p4911
aVjulian
p4912
aVstaduim
p4913
aVsundown
p4914
aVredsox
p4915
aVidlovetoask
p4916
aVborder
p4917
aVscrew
p4918
aVgonnabealongnight
p4919
aVupdateyourwebsite
p4920
aVable
p4921
aVshouldhaveflownjetblue
p4922
aVpurchasing
p4923
aVinstance
p4924
aVrelatives
p4925
aVunsmiling
p4926
aVus4623
p4927
aValwaysdelayed
p4928
aVua5097
p4929
aVcoke
p4930
aVnotwheelsup
p4931
aVbloodymary
p4932
aVmileage
p4933
aVnytimes
p4934
aVhoodlums
p4935
aVaww
p4936
aVexpires
p4937
aVjorge
p4938
aVmimosa
p4939
aVsc
p4940
aVmontana
p4941
aVconnected
p4942
aVawe
p4943
aVexpired
p4944
aVnonprofit
p4945
aVcellphone
p4946
aVplumber
p4947
aVmosaicmecrazy
p4948
aVexicted
p4949
aVupset
p4950
aVpsychological
p4951
aVconstruction
p4952
aVtalk
p4953
aVonehouronhold
p4954
aVimpression
p4955
aVemerging
p4956
aVparker
p4957
aVreprehensible
p4958
aVviolation
p4959
aVanyway
p4960
aVmosiacfail
p4961
aVsamartzis
p4962
aVflight850
p4963
aVparked
p4964
aVluggagegate
p4965
aVbushleague
p4966
aVus651621
p4967
aVbased
p4968
aVtire
p4969
aVearned
p4970
aVbuf
p4971
aVmuzak
p4972
aVwinner
p4973
aVhopeful
p4974
aVemployer
p4975
aVreactive
p4976
aVethan
p4977
aVattained
p4978
aVhpn
p4979
aVachieve
p4980
aVhassles
p4981
aVfsz4yo
p4982
aVoverall
p4983
aVtbt
p4984
aVcommunicating
p4985
aVmgr
p4986
aVlegitimate
p4987
aVbuyer
p4988
aVicyflight
p4989
aVprocedures
p4990
aVendless
p4991
aVgray
p4992
aVprocesses
p4993
aVdpt
p4994
aVsht
p4995
aVshv
p4996
aVcourse
p4997
aVaa973
p4998
aVvx413
p4999
aVaa977
p5000
aVtuned
p5001
aVprocessed
p5002
aVcontain
p5003
aVshh
p5004
aVgrab
p5005
aVsna2ord
p5006
aVskywest
p5007
aVchaperone
p5008
aVpointer
p5009
aVhumans
p5010
aVfreeze
p5011
aVcomputer
p5012
aVreinforcements
p5013
aVpowder
p5014
aVdesperate
p5015
aVoperated
p5016
aVpotable
p5017
aVcarryonbagssloweverybodydown
p5018
aVstats
p5019
aVluv
p5020
aVtimeliness
p5021
aVnightmare
p5022
aVhorribly
p5023
aVtgcyalate
p5024
aVwritten
p5025
aVmarsha
p5026
aVbagsflyfree
p5027
aVcorrectly
p5028
aVressie
p5029
aVworstairline
p5030
aVneither
p5031
aVtent
p5032
aVcomparable
p5033
aVattention
p5034
aVtripadvisor
p5035
aVflight4592
p5036
aVefficiency
p5037
aVkey
p5038
aVapproval
p5039
aVprecious
p5040
aVpordes
p5041
aVdelayforwhat
p5042
aVmonitor
p5043
aVundetermined
p5044
aVf8neqm
p5045
aVhits
p5046
aVdiligent
p5047
aVcareer
p5048
aVpatrick
p5049
aVadmit
p5050
aVexpand
p5051
aVlofty
p5052
aVjersey
p5053
aVdirecttv
p5054
aVnewplanesmell
p5055
aVtuesday
p5056
aVdenise
p5057
aVpreparedness
p5058
aVdestinationdragon
p5059
aVrabbits
p5060
aVguessweflyingdelta
p5061
aVorig
p5062
aVerased
p5063
aVquit
p5064
aVyay
p5065
aVaddition
p5066
aVdiscrimination
p5067
aVwills
p5068
aVpreregistration
p5069
aVthanked
p5070
aVrelying
p5071
aVslowly
p5072
aVtreat
p5073
aVcostumers
p5074
aVwhisper
p5075
aVworkforces
p5076
aVusername
p5077
aVshoulders
p5078
aVsenses
p5079
aVcontrolled
p5080
aVmckinnie
p5081
aVnowhereland
p5082
aVhuntsville
p5083
aVlisting
p5084
aVoversleeping
p5085
aVtweets
p5086
aVcontroller
p5087
aVslowing
p5088
aVours
p5089
aVpartnerrewards
p5090
aVsmoking
p5091
aVots
p5092
aVmsnbc
p5093
aVwinwin
p5094
aVpqds
p5095
aVscreencap
p5096
aVthatthis
p5097
aVtory
p5098
aVharder
p5099
aVqueuing
p5100
aVchalk
p5101
aVphishing
p5102
aVpetition
p5103
aVcxld
p5104
aVdemo
p5105
aVwantcharge
p5106
aVemailed
p5107
aVwks
p5108
aVundies
p5109
aVcapture
p5110
aVua1758
p5111
aVnotcool
p5112
aVgeneric
p5113
aVstrange
p5114
aVparty
p5115
aVwhydidntiflysouthwest
p5116
aVabsorb
p5117
aVdesition
p5118
aVeffect
p5119
aVsarcastic
p5120
aVfrequently
p5121
aVpaycheck
p5122
aVmech
p5123
aVashley
p5124
aVsurfboard
p5125
aVwelp
p5126
aVschd
p5127
aVdrone
p5128
aVdressed
p5129
aVcountingdown
p5130
aVrestore
p5131
aVtaller
p5132
aVinebriated
p5133
aVsavannah
p5134
aVoak
p5135
aVaccurate
p5136
aVpurifier
p5137
aVaccomidating
p5138
aVmistaken
p5139
aVakron
p5140
aVmistakes
p5141
aVadvertised
p5142
aVlauren
p5143
aVheaded
p5144
aVlogged
p5145
aVpatricia
p5146
aVbullshit
p5147
aVballoons
p5148
aVindignation
p5149
aVkick
p5150
aVdetails
p5151
aVdefinitive
p5152
aVfate
p5153
aVutah
p5154
aVmunich
p5155
aVlivid
p5156
aVrecharging
p5157
aVburden
p5158
aVimmediately
p5159
aVjockeying
p5160
aVloss
p5161
aVlost
p5162
aValternatively
p5163
aVring
p5164
aVliftin
p5165
aVcandy
p5166
aVtaping
p5167
aVcontrollers
p5168
aVpayments
p5169
aVmartin
p5170
aVpage
p5171
aVbacklog
p5172
aVcannedtweet
p5173
aVcurrentlysittingontarmac
p5174
aVflightledflight
p5175
aVtwitter
p5176
aVlibrary
p5177
aVaa1344
p5178
aVchocolate
p5179
aVfrancisco
p5180
aVwarmer
p5181
aVshes
p5182
aVcleveland
p5183
aVhome
p5184
aVliking
p5185
aVwallstreet
p5186
aVhesitant
p5187
aVcompetitor
p5188
aVaa2924
p5189
aVwendi
p5190
aVsteaming
p5191
aVbroad
p5192
aVwishmyflightwaslonger
p5193
aVgrinding
p5194
aVhangup
p5195
aVprobablynot
p5196
aVweighs
p5197
aVsweepstakes
p5198
aVpr
p5199
aVdaiber
p5200
aVinaccurate
p5201
aVps
p5202
aVjournal
p5203
aVmonetary
p5204
aVexpansion
p5205
aVusaw
p5206
aVanchorage
p5207
aVrecognized
p5208
aVcompatible
p5209
aVrodeo
p5210
aVequally
p5211
aVglenn
p5212
aVpreviously
p5213
aVwashington
p5214
aVvegetarianproblems
p5215
aVcncdld
p5216
aVfinalizing
p5217
aVretrieve
p5218
aVcouldnt
p5219
aVdiehardvirgin
p5220
aVpointless
p5221
aVclown
p5222
aVaccused
p5223
aVimpatience
p5224
aVrecruiter
p5225
aVreciprocate
p5226
aVnoticed
p5227
aVwhoo
p5228
aVinner
p5229
aVvx358
p5230
aVcldnt
p5231
aVlobstermac
p5232
aVnorth
p5233
aVgluten
p5234
aVhr
p5235
aVhs
p5236
aVhv
p5237
aVblaming
p5238
aVourprincess
p5239
aVhi
p5240
aVhn
p5241
aVgain
p5242
aVhm
p5243
aVoverflow
p5244
aVha
p5245
aVopsec
p5246
aVhd
p5247
aVmargo
p5248
aVdmd
p5249
aVijustwanttobeinboston
p5250
aVpn
p5251
aVhosting
p5252
aVsigned
p5253
aVcruel
p5254
aVdms
p5255
aVlimit
p5256
aVtimco
p5257
aVdmv
p5258
aVpumped
p5259
aVpiece
p5260
aVleathery
p5261
aVdisplay
p5262
aVaa1657
p5263
aVmechanics
p5264
aVmidnite
p5265
aVreservations
p5266
aVthnkx
p5267
aVtissues
p5268
aVkisses
p5269
aVtwist
p5270
aVbeats
p5271
aVeom
p5272
aVua2066
p5273
aVeducation
p5274
aVauthority
p5275
aVdiego
p5276
aVrumors
p5277
aVingredients
p5278
aVcincy
p5279
aVoffensive
p5280
aVpropositioned
p5281
aVmy8yb4
p5282
aVwaitlisted
p5283
aVstat
p5284
aVstar
p5285
aVjustsaying
p5286
aVsearched
p5287
aVastounding
p5288
aVstay
p5289
aVrefreshments
p5290
aVadditionally
p5291
aVelse
p5292
aVfriends
p5293
aVaa11
p5294
aVbcn
p5295
aVtcmparty
p5296
aVhnl
p5297
aVportion
p5298
aVbcz
p5299
aVuneducated
p5300
aVdetermination
p5301
aVrebuilding
p5302
aVstl2atl
p5303
aVfrankfurt
p5304
aVbcs
p5305
aVsecondly
p5306
aVtodays
p5307
aVmsgs
p5308
aVprotest
p5309
aVscheming
p5310
aVcaptain
p5311
aVswag
p5312
aVbuddy
p5313
aVaug
p5314
aVauf
p5315
aVauh
p5316
aVsegments
p5317
aVnws
p5318
aVdisability
p5319
aVboundless
p5320
aVdialing
p5321
aVaus
p5322
aVswap
p5323
aVrecycle
p5324
aVteaching
p5325
aVsorry
p5326
aVnofood
p5327
aVsway
p5328
aVfaail
p5329
aVupdated
p5330
aVrescue
p5331
aVconnects
p5332
aVcovert
p5333
aVsombrons
p5334
aVupdates
p5335
aVaffect
p5336
aVyikes
p5337
aVbaking
p5338
aVstrayed
p5339
aVskills
p5340
aVcompanies
p5341
aVsolution
p5342
aVconvenience
p5343
aVxzmscw
p5344
aVenhance
p5345
aVdeplorable
p5346
aVheading
p5347
aVupp
p5348
aVclothes
p5349
aVjeff
p5350
aVrevive
p5351
aVforce
p5352
aVsmalls
p5353
aVluvswa
p5354
aVnewamerican
p5355
aVua994
p5356
aVpreferences
p5357
aVwreck
p5358
aVtrvl
p5359
aVasia
p5360
aVlights
p5361
aVa3zz0f
p5362
aVwhrsthecoach
p5363
aVnev
p5364
aVnet
p5365
aVcarolinas
p5366
aVmaverick
p5367
aVfcuk
p5368
aVrelationships
p5369
aVdeemed
p5370
aVcentric
p5371
aVmem
p5372
aVmel
p5373
aVmeh
p5374
aVmet
p5375
aVpossibility
p5376
aVwhyabcwhy
p5377
aVactive
p5378
aVmex
p5379
aVdry
p5380
aVinterupt
p5381
aVignoring
p5382
aVeh
p5383
aVcredit
p5384
aVharass
p5385
aVsjo
p5386
aVsjc
p5387
aVadopting
p5388
aVchuckhole
p5389
aVdre
p5390
aVdislexia
p5391
aVgrandkids
p5392
aVfantastic
p5393
aVpoorest
p5394
aVcampaign
p5395
aVmobility
p5396
aVreagan
p5397
aVcounty
p5398
aVspecifics
p5399
aVguests
p5400
aVbussey
p5401
aVcounts
p5402
aVarmy
p5403
aVarms
p5404
aVcali
p5405
aVcall
p5406
aVtypo
p5407
aVrecommend
p5408
aVsurvive
p5409
aVtype
p5410
aVtell
p5411
aVwhatsoever
p5412
aVlungs
p5413
aVoscar
p5414
aVloong
p5415
aVconfs
p5416
aVdisruption
p5417
aVberlin
p5418
aVwarm
p5419
aVadult
p5420
aVwaitingagain
p5421
aVeternally
p5422
aValigned
p5423
aVpride
p5424
aVrights
p5425
aVmiserablemorning
p5426
aVsetup
p5427
aVincubator
p5428
aVmovies
p5429
aVfrequentflyer
p5430
aVexceptions
p5431
aVhoney
p5432
aVuntruthful
p5433
aVaging
p5434
aVua4935
p5435
aVfaults
p5436
aVamazing
p5437
aVneveragain
p5438
aVanswer
p5439
aVfaulty
p5440
aVconfig
p5441
aVsato
p5442
aVbecky
p5443
aVflustered
p5444
aVundergoing
p5445
aVreplacing
p5446
aVloyalty
p5447
aVbethonors
p5448
aVthankyou
p5449
aVcuriosity
p5450
aVpresident
p5451
aVsouthwestair
p5452
aVinactivity
p5453
aVpurchase
p5454
aVattempt
p5455
aVthird
p5456
aVrecieved
p5457
aVrudestaff
p5458
aVmaintain
p5459
aVfrequent
p5460
aVgoodbye
p5461
aVoperate
p5462
aVathletes
p5463
aVoperations
p5464
aVdeck
p5465
aVhelene
p5466
aVresponsive
p5467
aVsuites
p5468
aVposition
p5469
aVrescheduled
p5470
aVpersonal
p5471
aVsoaking
p5472
aVaa3195
p5473
aVhuxleyesque
p5474
aVstopover
p5475
aVcrew
p5476
aVreschedules
p5477
aVrly
p5478
aVveryimportantproject
p5479
aVweeks
p5480
aVgents
p5481
aVflysouthwest
p5482
aVnocrew
p5483
aVcombination
p5484
aVprofitbeforepeople
p5485
aVworkout
p5486
aVgreeaat
p5487
aVua1510
p5488
aVattdt
p5489
aVua1516
p5490
aVtakemehome
p5491
aVdownright
p5492
aVpatienceiswearingthin
p5493
aVmergerdisaster
p5494
aVsemantics
p5495
aVmeat
p5496
aVsleepless
p5497
aVventilation
p5498
aVacoustic
p5499
aVmeal
p5500
aVbone
p5501
aVluck
p5502
aVgunna
p5503
aVawrd
p5504
aVtripofalifetime
p5505
aVmilan
p5506
aVtrading
p5507
aVforgot
p5508
aVnavy
p5509
aVdawn
p5510
aVcontend
p5511
aVangrytraveler
p5512
aVrealtime
p5513
aVdime
p5514
aVcrucial
p5515
aVrivets
p5516
aVcontent
p5517
aVdeflator
p5518
aVripping
p5519
aVihop
p5520
aVdebit
p5521
aVsurprise
p5522
aVvenezuela
p5523
aVcutest
p5524
aVresume
p5525
aVtasha
p5526
aVfave
p5527
aVhuston
p5528
aVstruggle
p5529
aVsourhwest
p5530
aVaisle
p5531
aVlogging
p5532
aVstarts
p5533
aVisp
p5534
aVmessages
p5535
aVsteward
p5536
aVarrived
p5537
aVdangerofgettingsnowedin
p5538
aVmessaged
p5539
aVloud
p5540
aVutdallas
p5541
aVfuckin
p5542
aVcleaning
p5543
aVflatiron
p5544
aVbookofnegroes
p5545
aVhook
p5546
aVfloors
p5547
aVdisappearing
p5548
aVhoom
p5549
aVimmensely
p5550
aVhood
p5551
aVlovedflyingwiththem
p5552
aVpadresst
p5553
aVattackingbabymomma
p5554
aVgettingoffplane
p5555
aVstruts
p5556
aVgirls
p5557
aVpandu
p5558
aVdwell
p5559
aVhollywood
p5560
aVreboarding
p5561
aVa30
p5562
aVus84
p5563
aVet
p5564
aVvillages
p5565
aVservicefail
p5566
aVlh7631
p5567
aVsomewhat
p5568
aVdigg
p5569
aVpeculiar
p5570
aVstocking
p5571
aVboarding
p5572
aVdistance
p5573
aVanxiety
p5574
aVew
p5575
aVdisciplined
p5576
aVdpted
p5577
aVpreparation
p5578
aVmatter
p5579
aVstreet
p5580
aVsilly
p5581
aVdontdothistome
p5582
aVspoiled
p5583
aVnotahappycustomer
p5584
aVmini
p5585
aVseet
p5586
aVevidence
p5587
aVmind
p5588
aVmine
p5589
aVprerecorded
p5590
aVseen
p5591
aVsharktank
p5592
aVmins
p5593
aVseek
p5594
aVtells
p5595
aVgabriela
p5596
aVourguest
p5597
aVavios
p5598
aVricoh
p5599
aVboggling
p5600
aVmachines
p5601
aVdavidson
p5602
aVusairways
p5603
aVestablished
p5604
aVchathes
p5605
aVwewantcomps
p5606
aVmario
p5607
aVregular
p5608
aVmarie
p5609
aVbadbusiness
p5610
aVtyr
p5611
aVtys
p5612
aVreimbursement
p5613
aVassisting
p5614
aVobservation
p5615
aVdoc
p5616
aVmedical
p5617
aVdog
p5618
aVappalled
p5619
aVcompetitors
p5620
aVdefinitely
p5621
aVprinciple
p5622
aVdos
p5623
aVmailing
p5624
aVannoyed
p5625
aVurgency
p5626
aVmejia
p5627
aVdistances
p5628
aVretire
p5629
aVcompanionpass
p5630
aVattempts
p5631
aVdiscourteous
p5632
aVstepping
p5633
aVprobs
p5634
aVcustomerservicefail
p5635
aVnortheast
p5636
aVundignified
p5637
aVexplain
p5638
aVsugar
p5639
aVfolks
p5640
aVarpt
p5641
aVfolder
p5642
aVforelock
p5643
aVmakingthingseasy
p5644
aVdisconnecting
p5645
aVwearing
p5646
aVmonica
p5647
aVcompounded
p5648
aVstow
p5649
aVstop
p5650
aVintegrity
p5651
aVcoast
p5652
aVcomplt
p5653
aVfootrest
p5654
aVearn
p5655
aVchronological
p5656
aVbar
p5657
aVfields
p5658
aVbay
p5659
aVbag
p5660
aVbad
p5661
aVbae
p5662
aVdisney
p5663
aVcounters
p5664
aVeffing
p5665
aVdecides
p5666
aVreference
p5667
aVrockstar
p5668
aVtesting
p5669
aVzones
p5670
aVbonsinthesky
p5671
aVdecided
p5672
aVtheend
p5673
aVtaiwan
p5674
aVbrazil
p5675
aVdialup
p5676
aVinappropriate
p5677
aVsorta
p5678
aVimessage
p5679
aVreassigned
p5680
aVfrozentoilet
p5681
aVpets
p5682
aVbagdisgutedindenver
p5683
aVua423
p5684
aVifthe80sneverstopped
p5685
aVlazy
p5686
aVomg
p5687
aVfixthis
p5688
aVvows
p5689
aVboise
p5690
aVripskymall
p5691
aVaalwayslate
p5692
aVcousin
p5693
aVpicking
p5694
aVaunties
p5695
aVsuggested
p5696
aVunt
p5697
aVcompton
p5698
aVlostacustomer
p5699
aVfnd
p5700
aVund
p5701
aVcasimir
p5702
aVenzo
p5703
aVpresumably
p5704
aVappeared
p5705
aVhardworking
p5706
aVheight
p5707
aVreschedulemyflight
p5708
aVt5
p5709
aVinitiative
p5710
aVloaded
p5711
aVtargeting
p5712
aVnicer
p5713
aVtiny
p5714
aVparticulars
p5715
aVreplicate
p5716
aVihatemergers
p5717
aVbasic
p5718
aVrockers
p5719
aVentered
p5720
aVlovely
p5721
aVokayy
p5722
aVthrew
p5723
aVmco
p5724
aVmci
p5725
aVbringbackrealstaff
p5726
aVmce
p5727
aVsunshine
p5728
aVlocations
p5729
aVpersonally
p5730
aVaviation
p5731
aVexception
p5732
aVgracias
p5733
aVtank
p5734
aVrebooks
p5735
aVsfo2lax
p5736
aVspontaneously
p5737
aVnear
p5738
aVsuppose
p5739
aVitinerary
p5740
aVsld
p5741
aVbalance
p5742
aVslc
p5743
aViy
p5744
aVseven
p5745
aVtakemeback
p5746
aVmexico
p5747
aVsanitizer
p5748
aVcustomers
p5749
aVii
p5750
aVshame
p5751
aVcant
p5752
aVpeanutsandtoons
p5753
aVim
p5754
aVil
p5755
aVapnea
p5756
aVsanitized
p5757
aVseattle
p5758
aVmouse
p5759
aVid
p5760
aVdisappear
p5761
aVgrown
p5762
aVbottles
p5763
aVshotwest
p5764
aVtucking
p5765
aVlhrdfw
p5766
aVpotentially
p5767
aVhahah
p5768
aVunfortunate
p5769
aVemer
p5770
aVentitled
p5771
aVconnetion
p5772
aVhomeschool
p5773
aVsacramento
p5774
aVella
p5775
aVtakr
p5776
aVkit
p5777
aVdelight
p5778
aVkin
p5779
aVkim
p5780
aVjealous
p5781
aVopportunity
p5782
aVkid
p5783
aVwindy
p5784
aVprograms
p5785
aVsettled
p5786
aVfailing
p5787
aVneptune
p5788
aVchanger
p5789
aVefficient
p5790
aVpractices
p5791
aVpandora
p5792
aVclaims
p5793
aVpricewise
p5794
aVleft
p5795
aVetiquette
p5796
aVprotocol
p5797
aVyea
p5798
aVupgrading
p5799
aVunfollow
p5800
aVunfair
p5801
aVcrewmember
p5802
aVassigned
p5803
aVbandwidth
p5804
aVshocked
p5805
aVhuman
p5806
aVyep
p5807
aVyes
p5808
aVoscarscountdown
p5809
aVimpending
p5810
aVefficencies
p5811
aVbelfast
p5812
aVdevaluation
p5813
aVroyal
p5814
aVwings
p5815
aVsurliness
p5816
aVbundleup
p5817
aVsave
p5818
aVlocator
p5819
aVdonotflyusair
p5820
aVopt
p5821
aVdissaponted
p5822
aVops
p5823
aVblizzue
p5824
aVmideast
p5825
aVamarillo
p5826
aVtmrw
p5827
aVshocker
p5828
aVsupervisors
p5829
aVgovt
p5830
aVdreams
p5831
aVreconsidering
p5832
aVshoulder
p5833
aVdignity
p5834
aVsubterfuge
p5835
aVflydelta
p5836
aVvisible
p5837
aVf6dk04
p5838
aVperforming
p5839
aVunnecessary
p5840
aVarrivals
p5841
aVdisapptment
p5842
aVdeal
p5843
aVpacquiao
p5844
aVtailfinthursday
p5845
aVdeaf
p5846
aVsomehow
p5847
aVdead
p5848
aVwaitingonapilot
p5849
aVintern
p5850
aVees
p5851
aVinvoice
p5852
aVdear
p5853
aVnocareforcustomers
p5854
aVseparately
p5855
aVbrd
p5856
aVcarts
p5857
aVnotification
p5858
aVstellarservice
p5859
aVtrack
p5860
aVtracker
p5861
aVkeepem2
p5862
aVfunctionally
p5863
aVunmissable
p5864
aVpaged
p5865
aVbold
p5866
aVdunkin
p5867
aVextraordinaire
p5868
aVburn
p5869
aVvabeatsjblue
p5870
aVunorganized
p5871
aVpromos
p5872
aVaa3465
p5873
aVua1532
p5874
aVdnx58v
p5875
aVsuper
p5876
aVwoase2015
p5877
aVua1534
p5878
aVbsuxlu
p5879
aVstuckintampa
p5880
aVyelling
p5881
aVinedible
p5882
aVweeklycommuteonaa
p5883
aVvalentines
p5884
aVmagazine
p5885
aVafternoon
p5886
aVipodtouch
p5887
aVcommit
p5888
aVnewarkliberty
p5889
aVwhats
p5890
aVlied
p5891
aVoverloads
p5892
aVselfie
p5893
aVitproblems
p5894
aVlies
p5895
aVoverkill
p5896
aVsalisbury
p5897
aVamsterdam
p5898
aVshesaidrun
p5899
aVfor4
p5900
aVk13
p5901
aVfarecompare
p5902
aVbrandmance
p5903
aVweathered
p5904
aVamazingly
p5905
aVevenmorespace
p5906
aVflying
p5907
aVapproximate
p5908
aVinspected
p5909
aVpages
p5910
aVfraction
p5911
aVform
p5912
aVlanding
p5913
aVfailure
p5914
aVseatmate
p5915
aVanalyst
p5916
aVfort
p5917
aVstreaming
p5918
aVattached
p5919
aVm8
p5920
aVwhiskey
p5921
aVtucson
p5922
aVeconomic
p5923
aVverbiage
p5924
aVsapphire
p5925
aVdaddy
p5926
aVtemper
p5927
aVdelete
p5928
aVua3782
p5929
aVbreathe
p5930
aVshin
p5931
aVua3787
p5932
aVclassic
p5933
aVdobetter
p5934
aVsale
p5935
aVshiz
p5936
aVclassiq
p5937
aVfashioned
p5938
aVawhile
p5939
aVpremier1k
p5940
aVshit
p5941
aVimportantflight
p5942
aVaunts
p5943
aVauthoritative
p5944
aValerts
p5945
aVhanded
p5946
aVmedicalissue
p5947
aVdigital
p5948
aVwarehouse
p5949
aVjetgreen
p5950
aVwmass
p5951
aVa15
p5952
aVpleasegod
p5953
aVweakservice
p5954
aVflywhonotblue
p5955
aVhandicap
p5956
aVdies
p5957
aVcnxns
p5958
aVdiet
p5959
aVjourney
p5960
aVtransfers
p5961
aVweekend
p5962
aVdied
p5963
aVjacked
p5964
aVhappening
p5965
aVapology
p5966
aVassume
p5967
aVblushing
p5968
aVdaily
p5969
aVjacket
p5970
aVglasslipperchallenge
p5971
aVreroute
p5972
aVlaws
p5973
aVrestored
p5974
aVcustomary
p5975
aVthemed
p5976
aVskip
p5977
aVskis
p5978
aVsegs
p5979
aVwiil
p5980
aVlaura
p5981
aVmanager
p5982
aVmile
p5983
aVskin
p5984
aVmisread
p5985
aVsuicide
p5986
aVwonderingirritated
p5987
aVfather
p5988
aVdisgusting
p5989
aVanswered
p5990
aVfinally
p5991
aVunpleasant
p5992
aVmarks
p5993
aVsuffered
p5994
aVdaryl
p5995
aVfreberg15
p5996
aVearlybird
p5997
aVrapidrewards
p5998
aVstring
p5999
aVchantilly
p6000
aVuneventful
p6001
aVairfare
p6002
aVothr
p6003
aVcontinentalairlines
p6004
aVmashing
p6005
aVswapping
p6006
aVdie
p6007
aVsticks
p6008
aVdig
p6009
aVaccidentally
p6010
aVsignin
p6011
aVitem
p6012
aVexcellence
p6013
aVapathetic
p6014
aVdiv
p6015
aVmiamore
p6016
aVround
p6017
aVolympic
p6018
aVunexpected
p6019
aVnottrue
p6020
aVfearing
p6021
aVdealing
p6022
aVmaximization
p6023
aVoverhaul
p6024
aVmk
p6025
aVeating
p6026
aVacpt
p6027
aVsoured
p6028
aVadds
p6029
aVaddr
p6030
aVnorris
p6031
aVrum
p6032
aVnftyconvention
p6033
aVsuspect
p6034
aVtemplate
p6035
aVinternational
p6036
aVfilled
p6037
aVmp
p6038
aVridic
p6039
aVkelsey
p6040
aVtransportation
p6041
aVtransparency
p6042
aVinvoluntarily
p6043
aVfrench
p6044
aVsnagging
p6045
aVearthquake
p6046
aVwait
p6047
aVbox
p6048
aVboy
p6049
aVbattling
p6050
aVshift
p6051
aVbos
p6052
aVbot
p6053
aVbom
p6054
aVsuggestion
p6055
aVboo
p6056
aVpriceless
p6057
aVconveniently
p6058
aVaa1401
p6059
aVgenuinely
p6060
aVdick
p6061
aVuseful
p6062
aVisitsummeryet
p6063
aVkaraax
p6064
aVflexibility
p6065
aVailing
p6066
aVidonotcare
p6067
aVhotels
p6068
aVsympathetic
p6069
aVperk
p6070
aVthre
p6071
aVvisit
p6072
aVfrance
p6073
aVconnector
p6074
aVinsider
p6075
aVreseated
p6076
aVthru
p6077
aVcheckout
p6078
aVitineraries
p6079
aVsharing
p6080
aVdroped
p6081
aVlabyrinth
p6082
aVacceptable
p6083
aVooh
p6084
aVpaseengers
p6085
aVdowntown
p6086
aVtoughtomakeplans
p6087
aVeffort
p6088
aVcanthurtasking
p6089
aVfly
p6090
aVdemolish
p6091
aVcaroline
p6092
aVoaaret
p6093
aVtokyo
p6094
aVavoiding
p6095
aVquoting
p6096
aVflu
p6097
aVflt
p6098
aVwallet
p6099
aVsous
p6100
aVsour
p6101
aVfll
p6102
aVgrowing
p6103
aVarrive
p6104
aVbites
p6105
aVveggies
p6106
aViconography
p6107
aVclaim
p6108
aVcrazy
p6109
aVordeal
p6110
aVgrouchy
p6111
aVpredict
p6112
aVwinston
p6113
aVfuck
p6114
aVagent
p6115
aVids
p6116
aVsample
p6117
aVgoodthingscome
p6118
aVaa5411
p6119
aVua5168
p6120
aVunhelpfulness
p6121
aVconfuses
p6122
aVpink
p6123
aVtravelbank
p6124
aVoverreacting
p6125
aVgetmehome
p6126
aVg8cvwj
p6127
aVtailwind
p6128
aVlubbock
p6129
aVping
p6130
aVnyt
p6131
aVtill
p6132
aVsunday
p6133
aVpure
p6134
aVpins
p6135
aVnyc
p6136
aVmap
p6137
aVstaying
p6138
aVdesigner
p6139
aVsna
p6140
aVlucycat
p6141
aVmax
p6142
aVcsfail
p6143
aVmac
p6144
aVmad
p6145
aVcrappiest
p6146
aVmaf
p6147
aVaisles
p6148
aVguys
p6149
aVgrow
p6150
aVoutline
p6151
aVskycaps
p6152
aVmaybe
p6153
aVswitch
p6154
aVjail
p6155
aVblock
p6156
aVafrican
p6157
aVbasket
p6158
aVworstcustservice
p6159
aVgesture
p6160
aVcute
p6161
aVshoes
p6162
aVgatwick
p6163
aVballbag
p6164
aVshaky
p6165
aVwishing
p6166
aVwashingtondc
p6167
aVhappyflier
p6168
aVcuts
p6169
aVargued
p6170
aVequip
p6171
aVirene
p6172
aVmait
p6173
aVflt348
p6174
aVpolice
p6175
aVthank
p6176
aVsmoothie
p6177
aVua3645
p6178
aVthanx
p6179
aVboardingpass
p6180
aVpolicy
p6181
aVmail
p6182
aVyponthebeat
p6183
aVmain
p6184
aVundermines
p6185
aVtexas
p6186
aVtonic
p6187
aVunplanned
p6188
aVviews
p6189
aVbein
p6190
aVattndt
p6191
aVystday
p6192
aVsooner
p6193
aVlunch
p6194
aVsrsly
p6195
aVsafari
p6196
aVkilled
p6197
aVicelandair
p6198
aVsmiles
p6199
aVmths
p6200
aVtruthful
p6201
aVxld
p6202
aVamericanisbetter
p6203
aVengadget
p6204
aVcareless
p6205
aVrock
p6206
aVaa138
p6207
aVnotmadeofmoney
p6208
aVzurich
p6209
aVscheme
p6210
aVtreacherous
p6211
aVmanifests
p6212
aVtrys
p6213
aVgirl
p6214
aVrequesting
p6215
aVdescription
p6216
aVcanada
p6217
aVliving
p6218
aVjackson
p6219
aVsprawled
p6220
aVpedophile
p6221
aVentree
p6222
aVrndtrp
p6223
aVstupid
p6224
aVsmells
p6225
aVcorrect
p6226
aVassurance
p6227
aVlag
p6228
aVnoreimbursement
p6229
aVpumping
p6230
aVorl
p6231
aVcalifornia
p6232
aVvinyl
p6233
aVorf
p6234
aVorg
p6235
aVord
p6236
aVua6
p6237
aVholdup
p6238
aVadvance
p6239
aVlanguage
p6240
aVstandby
p6241
aVheadphones
p6242
aVcommunicated
p6243
aVpoughkeepsie
p6244
aVyest
p6245
aVsugafly
p6246
aVwaited
p6247
aVlay
p6248
aVcheese
p6249
aVpredictive
p6250
aVquestion
p6251
aVrachel
p6252
aVcrib
p6253
aVamericant
p6254
aVamericans
p6255
aVsuspended
p6256
aVoverheating
p6257
aVcarry
p6258
aVsounds
p6259
aVcheesy
p6260
aVexecplat
p6261
aVlittle
p6262
aVyyzua70435
p6263
aVworkaround
p6264
aVmeaningful
p6265
aVslept
p6266
aVinflight
p6267
aVplains
p6268
aVdestinationdragons
p6269
aVspeaking
p6270
aVeyes
p6271
aVinefficient
p6272
aVmemo
p6273
aVcontinuous
p6274
aVaccurately
p6275
aVblacklist
p6276
aVhartford
p6277
aVflyitforward
p6278
aVmissedupgrades
p6279
aVslaycancerwithdragons
p6280
aVcocktails
p6281
aVfuking
p6282
aVluvsw
p6283
aVspecials
p6284
aVgotta
p6285
aVvacatinn
p6286
aVprotected
p6287
aVbooted
p6288
aVventure
p6289
aVcopay
p6290
aVlick
p6291
aVswfan
p6292
aVmundane
p6293
aVwknd
p6294
aVadvsry
p6295
aVua895
p6296
aVdevotedyyours
p6297
aVcomedian
p6298
aVluvintheair
p6299
aVoccupied
p6300
aVkevin
p6301
aVsotelo
p6302
aVbailed
p6303
aVlostmybusiness
p6304
aVanswering
p6305
aVisolate
p6306
aVhotspot
p6307
aVpotential
p6308
aVordnoise
p6309
aVadvis
p6310
aVinterior
p6311
aVperformance
p6312
aVpersonalized
p6313
aVnosecuritylines
p6314
aVswitching
p6315
aVchannel
p6316
aVmistreatment
p6317
aVpain
p6318
aVua3417
p6319
aVtrace
p6320
aVnormal
p6321
aVarguing
p6322
aVpaid
p6323
aVinsanity
p6324
aVbeta
p6325
aVcomplaints
p6326
aVua6465
p6327
aVespecially
p6328
aVrefunds
p6329
aVstuckinmemphis
p6330
aVlarry
p6331
aVneverflyusairways
p6332
aVrating
p6333
aVshot
p6334
aVadolfo
p6335
aVfiled
p6336
aVsites
p6337
aVelevate
p6338
aVflight919
p6339
aVshoe
p6340
aVcorner
p6341
aVflight911
p6342
aVfend
p6343
aVpwm
p6344
aVistead
p6345
aVdice
p6346
aVtreasure
p6347
aVstorms
p6348
aVblack
p6349
aVgerms
p6350
aVcustserv
p6351
aVcomplimentarybeveragesneeded
p6352
aVhostage
p6353
aVdesignated
p6354
aVgeg
p6355
aVnearly
p6356
aVgee
p6357
aVyvonne
p6358
aVconjunction
p6359
aVgem
p6360
aVsecondary
p6361
aVoctaviannightmare
p6362
aVbusiest
p6363
aVhappend
p6364
aVyield
p6365
aVmorning
p6366
aVmiler
p6367
aVmiles
p6368
aVhorribleservice
p6369
aVworrying
p6370
aVnogate
p6371
aVunmoving
p6372
aVtux
p6373
aVdeclared
p6374
aVhonesty
p6375
aVletitgo
p6376
aVseau
p6377
aVseat
p6378
aVrelative
p6379
aVsean
p6380
aVseam
p6381
aVcalendar
p6382
aVwonder
p6383
aVregistering
p6384
aVforgotten
p6385
aVforecast
p6386
aVwhereabouts
p6387
aVpump
p6388
aVgaga
p6389
aVreading
p6390
aVchecks
p6391
aVoversized
p6392
aVaffordable
p6393
aVinfrastructure
p6394
aVaugust
p6395
aVparent
p6396
aVjt
p6397
aVapprovals
p6398
aVtus
p6399
aVjp
p6400
aVkilling
p6401
aVjh
p6402
aVjj
p6403
aVjk
p6404
aVunitedhatesusall
p6405
aVjs
p6406
aVtue
p6407
aVcoupons
p6408
aVtug
p6409
aVjfk
p6410
aVdates
p6411
aVreddit
p6412
aVthanksdc
p6413
aVaccording
p6414
aVrestroom
p6415
aVjperhi
p6416
aVcld
p6417
aVtour
p6418
aVdisappointment
p6419
aVspare
p6420
aVholders
p6421
aVnoshadetothedmv
p6422
aVcancer
p6423
aVmaintained
p6424
aVmisconnected
p6425
aVguesstimate
p6426
aVconsidering
p6427
aVfyvrfn
p6428
aVunusual
p6429
aVcapable
p6430
aVtimbit
p6431
aVmark
p6432
aVinsensitive
p6433
aVdependable
p6434
aVjb
p6435
aVdontchangeathing
p6436
aValwayslate
p6437
aVmary
p6438
aVshopping
p6439
aVstepitup
p6440
aVflightedflight
p6441
aVmeasles
p6442
aVoffered
p6443
aVgeorgia
p6444
aVbrothaa
p6445
aVredeye
p6446
aVdangerous
p6447
aVplaning
p6448
aVnoexcusesaccepted
p6449
aVwake
p6450
aVdeclaration
p6451
aVsound
p6452
aVpressurization
p6453
aVbademployeeproblem
p6454
aVdisconnected
p6455
aVdocs
p6456
aVsobbed
p6457
aVaa1469
p6458
aVredwineisbetter
p6459
aVongoing
p6460
aVpromising
p6461
aVcancelled
p6462
aVhdn
p6463
aVmaybemange
p6464
aVluved
p6465
aVb738
p6466
aVfl382
p6467
aVamtrak
p6468
aVbathrooms
p6469
aVwhichisworsedenordfw
p6470
aVsincere
p6471
aVfirstlove
p6472
aVthaiairways
p6473
aVmiddle
p6474
aVsudden
p6475
aVwestjet
p6476
aVloosing
p6477
aVua748
p6478
aVobnoxious
p6479
aVmovements
p6480
aVbags
p6481
aVpar
p6482
aVpat
p6483
aVharsh
p6484
aVdoctor
p6485
aVpax
p6486
aVpay
p6487
aVwoodland
p6488
aVamateurs
p6489
aVhavoc
p6490
aVpac
p6491
aVpad
p6492
aVuncourteous
p6493
aVstepped
p6494
aVtryagain
p6495
aVextended
p6496
aVassist
p6497
aVgrt
p6498
aVa380s
p6499
aVcompanion
p6500
aVirrops
p6501
aVrunning
p6502
aVtotally
p6503
aVunitedfirst
p6504
aVdrain
p6505
aVhfjkto
p6506
aVunprofessionalism
p6507
aVua1470
p6508
aVaccountable
p6509
aVsolve
p6510
aVbottle
p6511
aVbumping
p6512
aVnohotel
p6513
aVamazed
p6514
aVparody
p6515
aVgates
p6516
aVoutdoor
p6517
aVfattuesday
p6518
aVmoney
p6519
aVwhatajoke
p6520
aVpissing
p6521
aVwifey
p6522
aVcp
p6523
aVwinterops
p6524
aVcomeon
p6525
aVbarbados
p6526
aVwifes
p6527
aVclueless
p6528
aVpile
p6529
aVbank
p6530
aVpreflight
p6531
aVcareers
p6532
aVhipunis
p6533
aVarent
p6534
aVgate4
p6535
aVmos
p6536
aVmor
p6537
aVmot
p6538
aVallrepresentativesbusy
p6539
aVfilmcrew
p6540
aVagts
p6541
aVmon
p6542
aVmom
p6543
aVcredentials
p6544
aVdefibrillator
p6545
aVblankets
p6546
aVmod
p6547
aVquantas
p6548
aVadams
p6549
aVchristine
p6550
aVserves
p6551
aVhomegirl
p6552
aVfacing
p6553
aVaudience
p6554
aVlaughing
p6555
aVserved
p6556
aVvoluntarily
p6557
aVhourandtenminutedelay
p6558
aVlegalizes
p6559
aVcabo
p6560
aVpittsburg
p6561
aVpronounce
p6562
aVbutt
p6563
aVmakestoomuchsense
p6564
aVspecified
p6565
aVimages
p6566
aVcabs
p6567
aVgross
p6568
aVua6016053916
p6569
aVveryloyalcustomer
p6570
aVconfirm
p6571
aVdrenched
p6572
aVwkrb
p6573
aVkms
p6574
aVexpressing
p6575
aVpipes
p6576
aVaussie
p6577
aVmoderate
p6578
aVwilmington
p6579
aVunderstatement
p6580
aVairways
p6581
aVmanufactured
p6582
aVjennings
p6583
aVbroken
p6584
aVdespicable
p6585
aVsquarely
p6586
aVlivepersonplease
p6587
aVpreoccupied
p6588
aVstations
p6589
aVisland
p6590
aVaircrft
p6591
aVmeaning
p6592
aVpractical
p6593
aVairline
p6594
aVpockets
p6595
aVtoothpaste
p6596
aVmarriott
p6597
aVroad
p6598
aVleatherseats
p6599
aVquietly
p6600
aVlands
p6601
aVthankme
p6602
aVcoupon
p6603
aVspreading
p6604
aVskilled
p6605
aVblessed
p6606
aVvacation
p6607
aVinbox
p6608
aVyyc
p6609
aVdreaming
p6610
aVaa1675
p6611
aVyyj
p6612
aVbreath
p6613
aVstyling
p6614
aVangryandsober
p6615
aVstrip
p6616
aVcompliant
p6617
aVchats
p6618
aVfor40
p6619
aVjacquelyn
p6620
aVstressors
p6621
aVfricken
p6622
aVstrikes
p6623
aVmellani
p6624
aVmty
p6625
aVwalkway
p6626
aVundelayed
p6627
aVwhammie
p6628
aVdownstairs
p6629
aVfreeneversucks
p6630
aVarranged
p6631
aVroadwarrior
p6632
aVsuitcase
p6633
aVmanuel
p6634
aVfl2771
p6635
aVembed
p6636
aVripme
p6637
aVdivadapouch
p6638
aVmltple
p6639
aVhated
p6640
aVvideos
p6641
aVrapids
p6642
aVhumiliated
p6643
aVdeep
p6644
aVworstflightever
p6645
aVdepartments
p6646
aVfile
p6647
aVgirlfriend
p6648
aVlifetime
p6649
aVdeed
p6650
aVfilm
p6651
aVfill
p6652
aVtedious
p6653
aVistanbul
p6654
aVretiring
p6655
aVpersonnel
p6656
aVdrivers
p6657
aVfield
p6658
aVchiberia
p6659
aVbrandi
p6660
aVformed
p6661
aVobsessed
p6662
aVstudents
p6663
aVbrands
p6664
aVsardine
p6665
aVremote
p6666
aVassets
p6667
aVunload
p6668
aVanyhelp
p6669
aVflyin
p6670
aVdca48810m
p6671
aVscroll
p6672
aVrwrd
p6673
aVhugely
p6674
aVgrossedout
p6675
aValright
p6676
aVgangway
p6677
aVstarting
p6678
aVua1207
p6679
aVrepresent
p6680
aVlooped
p6681
aVliar
p6682
aVforget
p6683
aVvile
p6684
aVallergy
p6685
aVdollar
p6686
aVbrowsers
p6687
aVreclameaqui
p6688
aVtalks
p6689
aVallowances
p6690
aVfreeconcert
p6691
aVchildren
p6692
aVreluctant
p6693
aVshattered
p6694
aVnines
p6695
aVbluecarpet
p6696
aVimma
p6697
aVenjoying
p6698
aVpremium
p6699
aVbanning
p6700
aVsitting
p6701
aVcanld
p6702
aVfend4yourself
p6703
aVembarrassment
p6704
aVfall
p6705
aVdifference
p6706
aVsyracuse
p6707
aVgov
p6708
aVnorfolk
p6709
aVwsj
p6710
aVworded
p6711
aVreminding
p6712
aVdelyd
p6713
aVdamper
p6714
aVwithheld
p6715
aVbestflightever
p6716
aVgrasshopper
p6717
aVflt1088
p6718
aVburger
p6719
aVzero
p6720
aVperspective
p6721
aVlawyer
p6722
aVlayover
p6723
aVinefficiency
p6724
aVthemagicalstranger
p6725
aVdial
p6726
aVabc
p6727
aVstood
p6728
aVillogical
p6729
aViceday
p6730
aVohno
p6731
aVabi
p6732
aVwrecked
p6733
aVcaffeine
p6734
aVabq
p6735
aVabt
p6736
aVworrisome
p6737
aVratchet
p6738
aVtribute
p6739
aVfingerscrossed
p6740
aVpublic
p6741
aVnoair
p6742
aVmovement
p6743
aVcarseat
p6744
aVsurfer
p6745
aVdisastrous
p6746
aVoperating
p6747
aVcontd
p6748
aVsearch
p6749
aVbible
p6750
aVfwd
p6751
aVstretching
p6752
aVfwa
p6753
aVairport
p6754
aVchipper
p6755
aVpublished
p6756
aVmentions
p6757
aVnarrow
p6758
aVua1130
p6759
aVauthorize
p6760
aVbuses
p6761
aVcowardly
p6762
aVtransit
p6763
aVjailbreak
p6764
aVemptied
p6765
aVestablish
p6766
aVbruins
p6767
aVreadily
p6768
aVclarion
p6769
aVeye
p6770
aVnothings
p6771
aVwiped
p6772
aVdestination
p6773
aVtexting
p6774
aVcomparing
p6775
aVamenities
p6776
aVeyw
p6777
aVtacky
p6778
aVwipes
p6779
aVextent
p6780
aVnohelp
p6781
aVexpedia
p6782
aVbrisk
p6783
aVneedtocatchmynextflight
p6784
aVlanded
p6785
aVevenmoreview
p6786
aVparticular
p6787
aVsleeping
p6788
aVtown
p6789
aVnone
p6790
aVhour
p6791
aVcluster
p6792
aVdep
p6793
aVdes
p6794
aVsucks
p6795
aVfrustratingly
p6796
aVremain
p6797
aVescorted
p6798
aVdel
p6799
aVden
p6800
aVabandon
p6801
aVdec
p6802
aVdef
p6803
aVstubborn
p6804
aVcompare
p6805
aVrobotweeting
p6806
aVshare
p6807
aVmainline
p6808
aVpro
p6809
aVlolol
p6810
aVconfirmation
p6811
aVpurchased
p6812
aVscavenger
p6813
aVsharp
p6814
aVanndd
p6815
aVcsm
p6816
aVawkward
p6817
aVflawless
p6818
aVaccuratetraveltimes
p6819
aVautomatic
p6820
aVcst
p6821
aVprofiting
p6822
aVcss
p6823
aVcsr
p6824
aVblacked
p6825
aVkci
p6826
aVadvice
p6827
aVbkk
p6828
aVblood
p6829
aVcoming
p6830
aVg8
p6831
aVresponse
p6832
aVavailab
p6833
aVreappeared
p6834
aVcrowded
p6835
aVcoat
p6836
aVtoiletries
p6837
aVdragon
p6838
aVmislead
p6839
aVua469
p6840
aVsecs
p6841
aVresponsibility
p6842
aVfistfights
p6843
aVpleasure
p6844
aVplaying
p6845
aVlinesforever
p6846
aVinfant
p6847
aVstains
p6848
aVual212
p6849
aVbrandloveaffair
p6850
aVnoclothesnoinfo
p6851
aVfilters
p6852
aVexistence
p6853
aVsuffer
p6854
aVarrogant
p6855
aVmessed
p6856
aVcomedic
p6857
aVua1731
p6858
aVpossessions
p6859
aVthnx
p6860
aVstatusmatchpaidoff
p6861
aVboson
p6862
aVlate
p6863
aVthng
p6864
aVmesses
p6865
aVthnk
p6866
aVhurting
p6867
aVdisrespectful
p6868
aVseeking
p6869
aVfee
p6870
aVnoticing
p6871
aVwalls
p6872
aVapostrophefail
p6873
aVdad
p6874
aVproblematic
p6875
aVcomplain
p6876
aVua1459
p6877
aVrant
p6878
aVno2jetblue
p6879
aVashes
p6880
aVconnolly
p6881
aVmonsoon
p6882
aVrepeating
p6883
aVbiscuits
p6884
aVports
p6885
aVluvthem
p6886
aVnexttimeiwillflysouthwest
p6887
aVmental
p6888
aVshouldhavedriven
p6889
aVhouse
p6890
aVenergy
p6891
aVhard
p6892
aVrachelle
p6893
aVidea
p6894
aVengaging
p6895
aVoil
p6896
aVconnect
p6897
aVsurly
p6898
aVportland
p6899
aVbackpacks
p6900
aVinsurance
p6901
aVreinstating
p6902
aVflgjt
p6903
aVballin
p6904
aVchildish
p6905
aVmardigras
p6906
aVdiscouraging
p6907
aVacting
p6908
aVprint
p6909
aVwrongiswrong
p6910
aVflexes
p6911
aVbully
p6912
aVpathetic
p6913
aVsquished
p6914
aVenforcing
p6915
aVimtired
p6916
aVpleasant
p6917
aVdifficulty
p6918
aVterminals
p6919
aVsba
p6920
aVshrimp
p6921
aVoscars2105
p6922
aVsbn
p6923
aVbragged
p6924
aVbenefits
p6925
aVcomputers
p6926
aVplot
p6927
aVmccarran
p6928
aVtos
p6929
aVpilots
p6930
aVpassenegers
p6931
aVdont
p6932
aVvalentine
p6933
aVapproximately
p6934
aVrerouted
p6935
aVwages
p6936
aVwager
p6937
aVvisors
p6938
aVrazor
p6939
aVichangedyourdiaper
p6940
aVkinder
p6941
aVtwenty
p6942
aVfp9m6y
p6943
aVplayer
p6944
aVpaint
p6945
aVregulation
p6946
aVusairwaysfail
p6947
aVstatement
p6948
aVlease
p6949
aVmuscles
p6950
aVsnags
p6951
aVmentality
p6952
aVneedtobehonest
p6953
aVawesomeness
p6954
aVdoctors
p6955
aVgetmeoffrhisfuckinplane
p6956
aVbelieve
p6957
aVpercentage
p6958
aVclarifying
p6959
aVsuuper
p6960
aVcompliments
p6961
aVgotten
p6962
aVgivethoseladiesraise
p6963
aVfinalstretch
p6964
aVaa2402
p6965
aVaa2401
p6966
aVrecording
p6967
aVsupposed
p6968
aVtreated
p6969
aVoutta
p6970
aVages
p6971
aVardent
p6972
aVkmdw
p6973
aVaged
p6974
aVflightst
p6975
aVbuilt
p6976
aVdancing
p6977
aVhonors
p6978
aVmajority
p6979
aVunscheduled
p6980
aVaa227
p6981
aVfmjtyl
p6982
aVaa223
p6983
aVtool
p6984
aVme2sit
p6985
aVwaitin
p6986
aVprogrammers
p6987
aVcarolina
p6988
aVchart
p6989
aVtarmack
p6990
aVserviced
p6991
aVcomps
p6992
aVnomoreaggravation
p6993
aVcharm
p6994
aVsignificant
p6995
aVservices
p6996
aVengagements
p6997
aVextremely
p6998
aVkc
p6999
aVgoodwill
p7000
aVnotourfaultyoudontuseyourgatesright
p7001
aVkp
p7002
aVmammoth
p7003
aVweigh
p7004
aVky
p7005
aVmooks
p7006
aVsector
p7007
aVthomas
p7008
aVteamusa
p7009
aVparticularly
p7010
aVwailing
p7011
aVkeepitup
p7012
aVscattered
p7013
aVsnowbama
p7014
aVepicfailure
p7015
aVnonrefundable
p7016
aVswitchingboth
p7017
aVhopped
p7018
aVfine
p7019
aVanswerthephone
p7020
aVcell
p7021
aVgiant
p7022
aVmerger
p7023
aVnervous
p7024
aVruin
p7025
aVunhappy
p7026
aVidiots
p7027
aVairlinesecurity
p7028
aVgills
p7029
aVmerged
p7030
aVadjustments
p7031
aVexpress
p7032
aVtoddlers
p7033
aVbreast
p7034
aVtheft
p7035
aVclassed
p7036
aVsill
p7037
aVresolve
p7038
aVcontagious
p7039
aVstrandednyc
p7040
aVremove
p7041
aVgarcia
p7042
aVcommon
p7043
aVua3388
p7044
aVwrongfully
p7045
aVvino
p7046
aVindividual
p7047
aVreserv
p7048
aVretweet
p7049
aVcozy
p7050
aVhelper
p7051
aVvisiting
p7052
aVquintana
p7053
aVplease
p7054
aVpaymytab
p7055
aVupsetting
p7056
aVfans
p7057
aVtoledo
p7058
aVstowaway
p7059
aVerrored
p7060
aVdonate
p7061
aVrefuel
p7062
aVpushing
p7063
aVresponses
p7064
aVdividends
p7065
aVnashville
p7066
aVmailbox
p7067
aVaircraft
p7068
aVpissed
p7069
aVfolding
p7070
aVreverse
p7071
aVannual
p7072
aVbozos
p7073
aVforeign
p7074
aValot
p7075
aVfocused
p7076
aVtill11
p7077
aVbaltimore
p7078
aVupgraded
p7079
aVsubpar
p7080
aVenoughisenough
p7081
aVsupply
p7082
aVsimple
p7083
aVlbs
p7084
aVmanned
p7085
aVsimply
p7086
aVandchexmix
p7087
aVthroughout
p7088
aVexpensive
p7089
aVheadaches
p7090
aVplatinum
p7091
aVraise
p7092
aVthanksunited
p7093
aVz1
p7094
aVrivals
p7095
aVsecret
p7096
aVdropping
p7097
aVaafail
p7098
aVensured
p7099
aVireland
p7100
aVrett
p7101
aVperth
p7102
aVintrusive
p7103
aVpanamerican
p7104
aVattire
p7105
aVdelaygreatcustomerservice
p7106
aVgay
p7107
aVchatted
p7108
aVgas
p7109
aVpriced
p7110
aVpricey
p7111
aVgal
p7112
aVunderstand
p7113
aVgah
p7114
aVprices
p7115
aVunnecessarily
p7116
aVbila
p7117
aVsolid
p7118
aVbill
p7119
aVconvo
p7120
aVua1159
p7121
aVreopens
p7122
aVreplaced
p7123
aVheyy
p7124
aVfun
p7125
aVua1150
p7126
aVfuk
p7127
aVua1157
p7128
aVshoddy
p7129
aVcentury
p7130
aVcents
p7131
aVoversold
p7132
aVatct
p7133
aVencountered
p7134
aVcathay
p7135
aVstubbornly
p7136
aVxtra
p7137
aVewk
p7138
aVitaly
p7139
aVfailingyourcustomer
p7140
aVrestrm
p7141
aVavalonhollywood
p7142
aVemphasize
p7143
aVhopin
p7144
aVgreyed
p7145
aVewr
p7146
aVruth
p7147
aVdevelopment
p7148
aVstrips
p7149
aVassignment
p7150
aVyesterday
p7151
aVdesks
p7152
aVhusbands
p7153
aVsyr
p7154
aVmoment
p7155
aVpassngr
p7156
aVpurpose
p7157
aVwheelchairs
p7158
aVgenuine
p7159
aVdart
p7160
aVneuer
p7161
aVnolo
p7162
aVforfeited
p7163
aVnola
p7164
aVspent
p7165
aVunannounced
p7166
aVconvenient
p7167
aVswiss
p7168
aVentry
p7169
aVchemistry
p7170
aVspend
p7171
aVpreference
p7172
aVeyeglasses
p7173
aVftlauderdale
p7174
aVsju
p7175
aVnoplacelikehome
p7176
aValternative
p7177
aVinjuries
p7178
aVletting
p7179
aVcut
p7180
aVcus
p7181
aVcup
p7182
aVdiversions
p7183
aVdisappointed
p7184
aValternate
p7185
aVcuz
p7186
aVguatemala
p7187
aVsnag
p7188
aVmakers
p7189
aVcue
p7190
aVanswerphone
p7191
aVfreyasfund
p7192
aVcun
p7193
aVeaster
p7194
aVexcited
p7195
aVhates
p7196
aVnonewplanes
p7197
aVbin
p7198
aVbio
p7199
aVbil
p7200
aVbid
p7201
aVlaughed
p7202
aVmatters
p7203
aVredeem
p7204
aVbiz
p7205
aVmonika
p7206
aVbit
p7207
aVprecipitation
p7208
aVcompetitively
p7209
aVknock
p7210
aVsupvrs
p7211
aVfollows
p7212
aVdeaffriendly
p7213
aVindication
p7214
aVfoolish
p7215
aVgoogle
p7216
aVgardening
p7217
aVbuttons
p7218
aVabsolutely
p7219
aVduck
p7220
aVjetbluerocks
p7221
aVbach
p7222
aVaccelerate
p7223
aVlightning
p7224
aVourselves
p7225
aVbrent
p7226
aVscale
p7227
aVpet
p7228
aVaffects
p7229
aVdecision
p7230
aVproficient
p7231
aVintegration
p7232
aVnewark
p7233
aVpen
p7234
aVconnecting
p7235
aVverbally
p7236
aVpek
p7237
aVconnectin
p7238
aVepic
p7239
aVaflame
p7240
aVnose
p7241
aVpatient
p7242
aVtaxing
p7243
aVremembered
p7244
aVcontinuing
p7245
aVgrandbabies
p7246
aVtelleveryone
p7247
aVusd
p7248
aVlounges
p7249
aVloyalrrmember
p7250
aVtripping
p7251
aVusb
p7252
aVcommunicationfail
p7253
aVconsumption
p7254
aVaudition
p7255
aVfron
p7256
aVgraduation
p7257
aVbso
p7258
aVbeans
p7259
aVbish
p7260
aVshitting
p7261
aVhahahah
p7262
aVmisplaced
p7263
aVjimmy
p7264
aVretailer
p7265
aVseating
p7266
aVua938
p7267
aVwifiless
p7268
aVlesson
p7269
aVgobankrupt
p7270
aVua936
p7271
aVbankruptcy
p7272
aVcalming
p7273
aVwinterstorm2015
p7274
aVmke
p7275
aVontario
p7276
aVdoll
p7277
aVflght
p7278
aVsquawked
p7279
aVmkt
p7280
aVforward
p7281
aVbored
p7282
aVnonprofits
p7283
aVinvite
p7284
aVadjusting
p7285
aVanotherdisappointment
p7286
aVhoped
p7287
aVboys
p7288
aVsdf
p7289
aVcoltsmissingbags
p7290
aVhopes
p7291
aVincls
p7292
aVtreats
p7293
aVdirected
p7294
aVbiggie
p7295
aVplanet
p7296
aVplanes
p7297
aVkybilc
p7298
aVwhathappend
p7299
aVpossession
p7300
aVcurt
p7301
aVconstant
p7302
aVflow
p7303
aVnothanks
p7304
aVsingle
p7305
aVcurb
p7306
aVprettyplease
p7307
aVorganizational
p7308
aVtransf
p7309
aVcafe
p7310
aVflightations
p7311
aVgainesville
p7312
aVdimmed
p7313
aVaa951
p7314
aVb16
p7315
aVexcuses
p7316
aVb15
p7317
aVb12
p7318
aVb13
p7319
aVb11
p7320
aVirreplaceable
p7321
aVksml
p7322
aVb18
p7323
aVbrushing
p7324
aVunderweight
p7325
aVlend
p7326
aVohioprobz
p7327
aVgraded
p7328
aVluxurious
p7329
aVmetars
p7330
aVstrandedinnashville
p7331
aVcater
p7332
aVutterly
p7333
aVprepares
p7334
aVdesert
p7335
aVboyfriends
p7336
aVorangecounty
p7337
aVoverlooking
p7338
aVcooker
p7339
aVappalling
p7340
aVjetred
p7341
aVfailures
p7342
aVkickin
p7343
aVprebook
p7344
aVjason
p7345
aVlft5
p7346
aVpatriarc
p7347
aVangriest
p7348
aVbulkhead
p7349
aVchariot
p7350
aVquery
p7351
aVwhybeaaff
p7352
aVreposted
p7353
aVpeanut
p7354
aVsalvaged
p7355
aVlx009
p7356
aVhelps
p7357
aVtime2switch
p7358
aVlilly
p7359
aVstaffing
p7360
aVase24766m
p7361
aVworsttraveldayever
p7362
aVputting
p7363
aVarrange
p7364
aVseverely
p7365
aVrespectful
p7366
aVshock
p7367
aVsunrises
p7368
aVgetyouracttogether
p7369
aVmumbai
p7370
aVthinkbus
p7371
aVchoppy
p7372
aVlapse
p7373
aVunrelate
p7374
aValbuquer
p7375
aVnetneutrality
p7376
aVuncomfortable
p7377
aVnotsatisfied
p7378
aVelise
p7379
aVlostbags
p7380
aVdepression
p7381
aVstaffers
p7382
aVticketing
p7383
aVchicago
p7384
aVgiving
p7385
aVmaryjo
p7386
aVdissapointing
p7387
aVinconveniences
p7388
aVaccess
p7389
aVinternship
p7390
aVpleading
p7391
aVinconvenienced
p7392
aVkeepmy
p7393
aVexercise
p7394
aVbody
p7395
aVunhappytraveler
p7396
aVexchange
p7397
aVregrading
p7398
aVteleportation
p7399
aVnonexistent
p7400
aVpeggy
p7401
aVpacking
p7402
aVsink
p7403
aVsing
p7404
aVsafer
p7405
aVsine
p7406
aVirritating
p7407
aVextreme
p7408
aVtalent
p7409
aVholdtime
p7410
aValaska
p7411
aVcert
p7412
aVweekday
p7413
aVexistent
p7414
aVimplement
p7415
aVhonor
p7416
aVchnge
p7417
aVnamed
p7418
aVblizzard
p7419
aVbeijing
p7420
aVprivate
p7421
aVthrowback
p7422
aVnames
p7423
aVscandal
p7424
aVresolutions
p7425
aVlima
p7426
aVcha
p7427
aVtaxiing
p7428
aVchg
p7429
aVbreakup
p7430
aVchk
p7431
aVchl
p7432
aVcho
p7433
aVfligths
p7434
aVchs
p7435
aVdebbie
p7436
aVthemselves
p7437
aVskyscanner
p7438
aVupcoming
p7439
aVkiosk
p7440
aVastoria
p7441
aVreissued
p7442
aVtrain
p7443
aVashamed
p7444
aVtropic
p7445
aVbilled
p7446
aVduped
p7447
aVsubscription
p7448
aVaccount
p7449
aVspeciifc
p7450
aVsounded
p7451
aVunreal
p7452
aVobvious
p7453
aVpraise
p7454
aVearlybirdmeansnothing
p7455
aVclosing
p7456
aVdidnt
p7457
aVusuck
p7458
aVfaundation
p7459
aVreserved
p7460
aVsnacks
p7461
aVinvoices
p7462
aVspruce
p7463
aVcontempt
p7464
aVhangar
p7465
aVxna
p7466
aVregains
p7467
aVlame
p7468
aVholds
p7469
aVfete
p7470
aVwinners
p7471
aVclientnothappy
p7472
aVaft
p7473
aVrevs
p7474
aVstock
p7475
aVprofile
p7476
aVfran
p7477
aVincompetence
p7478
aVyouve
p7479
aVcollection
p7480
aVbothered
p7481
aVlivewelltraveled
p7482
aVdominick
p7483
aVleisure
p7484
aVincompetency
p7485
aVjoplin
p7486
aVsedholm
p7487
aVchasing
p7488
aVfullprice
p7489
aVguru
p7490
aVlines
p7491
aVshutting
p7492
aVua82
p7493
aVambivalence
p7494
aVchief
p7495
aVpassengersarepeople
p7496
aVfurious
p7497
aVsubsequently
p7498
aVlined
p7499
aVbins
p7500
aVsix
p7501
aVinstitutional
p7502
aVwedding
p7503
aVbusinesstrip
p7504
aVaand
p7505
aVvx399
p7506
aVflattering
p7507
aVaustrian
p7508
aVnasty
p7509
aVgalaxy
p7510
aVbunch
p7511
aVbridges
p7512
aVlb
p7513
aVtsk
p7514
aVla
p7515
aVdecorum
p7516
aVlh
p7517
aVtsa
p7518
aVresorting
p7519
aVwilling
p7520
aVmarsh
p7521
aVvenetia
p7522
aVcardholder
p7523
aVcriminal
p7524
aVjokesonus
p7525
aVartisanal
p7526
aVjunction
p7527
aVdal
p7528
aVdan
p7529
aVspell
p7530
aVruns
p7531
aVmention
p7532
aVcutting
p7533
aVyyz
p7534
aVday
p7535
aVstrive
p7536
aVfebruary
p7537
aVairports
p7538
aVkilleen
p7539
aVtues
p7540
aVdisregard
p7541
aVl8
p7542
aVaa1679
p7543
aVusaiways
p7544
aVactivate
p7545
aVrockstars
p7546
aVpitts
p7547
aVunserviceable
p7548
aVsweatshirt
p7549
aVsexual
p7550
aVnocharge
p7551
aVpopping
p7552
aVrez
p7553
aVannouncer
p7554
aVres
p7555
aVrep
p7556
aVwholly
p7557
aVarkansas
p7558
aVrem
p7559
aVrec
p7560
aVpostpone
p7561
aVwheelsup
p7562
aVref
p7563
aVred
p7564
aVemp
p7565
aVmayweatherpacquiao
p7566
aVshots
p7567
aVa587cw
p7568
aVduffle
p7569
aVclarify
p7570
aVconfirmations
p7571
aVque
p7572
aVretards
p7573
aVbwi
p7574
aVlikelihood
p7575
aVbleed
p7576
aVreceipts
p7577
aVinteraction
p7578
aVsteal
p7579
aVskateboard
p7580
aVmergers
p7581
aVqualification
p7582
aVbarriers
p7583
aVretain
p7584
aVairtran
p7585
aVsouth
p7586
aVflight424
p7587
aVrudely
p7588
aVfinest
p7589
aVunfollowing
p7590
aVpgh
p7591
aVphiladelphia
p7592
aVembarrassed
p7593
aVimprovements
p7594
aVdullestostatecollege
p7595
aVlagging
p7596
aVreached
p7597
aVforfeits
p7598
aVowning
p7599
aVmiserably
p7600
aVsadly
p7601
aVmonkey
p7602
aVconection
p7603
aVlaps
p7604
aVentertainmnt
p7605
aVunspecified
p7606
aVrealistically
p7607
aVmessing
p7608
aVcabin
p7609
aVxoxo
p7610
aVgear
p7611
aVexplanation
p7612
aVacquire
p7613
aVc68ld9
p7614
aVsporadically
p7615
aVfebruaryfreezefox17
p7616
aVua1416
p7617
aVcoughed
p7618
aVipad
p7619
aVloved
p7620
aVdandy
p7621
aVshampoo
p7622
aVcalamity
p7623
aVloves
p7624
aVembody
p7625
aVmojave
p7626
aVupwherewebelong
p7627
aVmelinda
p7628
aVwakes
p7629
aVabassinet
p7630
aVcattle
p7631
aVcomfortable
p7632
aVtide
p7633
aVconnectors
p7634
aVcomfortably
p7635
aVunlikely
p7636
aVapparently
p7637
aVbookable
p7638
aVadmin
p7639
aVcongrats
p7640
aVmia
p7641
aVmid
p7642
aVincentive
p7643
aVasgmnt
p7644
aVmix
p7645
aVconcerns
p7646
aVmis
p7647
aVno800number
p7648
aVunless
p7649
aVdisappointments
p7650
aVrearrange
p7651
aVsfo
p7652
aVthanksdave
p7653
aVeight
p7654
aVhandbag
p7655
aVsally
p7656
aVherman
p7657
aVquotations
p7658
aVbnasnow
p7659
aVstranded
p7660
aVrequest
p7661
aVzfv
p7662
aVvaluing
p7663
aVcallers
p7664
aVoutofbusiness
p7665
aVabsurd
p7666
aVoccasion
p7667
aVnormally
p7668
aVselection
p7669
aVtext
p7670
aVsupported
p7671
aVkits
p7672
aVportfolio
p7673
aVsupporter
p7674
aVstaff
p7675
aVwear
p7676
aVamazings
p7677
aVknowledge
p7678
aVfresno
p7679
aVroadtrip
p7680
aVbetsy
p7681
aVcommunist
p7682
aVa319
p7683
aVregularly
p7684
aVneveryamind
p7685
aVcsrs
p7686
aVexceptional
p7687
aVbeat
p7688
aVphotography
p7689
aVcoworker
p7690
aVbear
p7691
aVaccrue
p7692
aVcrosswords
p7693
aVcattle2slaughter
p7694
aVaforementioned
p7695
aVtiming
p7696
aVgetittogether
p7697
aVwestchester
p7698
aVjoanne
p7699
aVrage
p7700
aVfixes
p7701
aVteams
p7702
aVfixed
p7703
aVwannagohome
p7704
aVjoanna
p7705
aVsamantha
p7706
aVuntrue
p7707
aVexists
p7708
aVnocoatcloset
p7709
aVtimezones
p7710
aVnational
p7711
aVwervirgin
p7712
aVwd
p7713
aVsafetyfirst
p7714
aVatlantic
p7715
aVterms
p7716
aVattempting
p7717
aVclearing
p7718
aVralph
p7719
aVpssgrs
p7720
aVdiscounts
p7721
aVdifficulties
p7722
aVrouting
p7723
aVroutine
p7724
aVebola
p7725
aVprogress
p7726
aVcolombian
p7727
aVjanet
p7728
aVsuperior
p7729
aVfacepalm
p7730
aVdeliver
p7731
aVhof
p7732
aVlegit
p7733
aVempathy
p7734
aVinstant
p7735
aVjoke
p7736
aVtaking
p7737
aVequal
p7738
aVagree
p7739
aVkosher
p7740
aVassure
p7741
aVbusted
p7742
aVnakedmeetings
p7743
aVlawyerup
p7744
aVpassing
p7745
aVretweets
p7746
aVotherwise
p7747
aVcomment
p7748
aVvent
p7749
aVrelevant
p7750
aVunfold
p7751
aVjustgetmehome
p7752
aVfostering
p7753
aVcommend
p7754
aVm13
p7755
aVab
p7756
aVlaugh
p7757
aVearning
p7758
aVcontentmarketing
p7759
aVtremendous
p7760
aVaf
p7761
aVdarrel
p7762
aVdowngraded
p7763
aVjsom
p7764
aVwhyfly
p7765
aVmagical
p7766
aVdefine
p7767
aVfinishes
p7768
aVcop
p7769
aVairplanes
p7770
aVessentially
p7771
aVtense
p7772
aVbull
p7773
aVbulb
p7774
aVvolunteer
p7775
aVmulti
p7776
aVbye
p7777
aVwelcoming
p7778
aVsplits
p7779
aVplain
p7780
aVvalue
p7781
aVhubs
p7782
aVithica
p7783
aVfrustrating
p7784
aVflyjetblue
p7785
aVjeanette
p7786
aVamenity
p7787
aVilm
p7788
aVshld
p7789
aVmanually
p7790
aVchaotic
p7791
aVmassivefail
p7792
aVwalks
p7793
aVweighed
p7794
aVdividendrewards
p7795
aVarrangements
p7796
aVclaimed
p7797
aVpartner
p7798
aVroundtrips
p7799
aVproductivity
p7800
aVwaivethefee
p7801
aVadvan
p7802
aVslammed
p7803
aVnosupport
p7804
aVshuttle
p7805
aVinjured
p7806
aVhon
p7807
aVoverselling
p7808
aVios
p7809
aVsauna
p7810
aVbullying
p7811
aVfucken
p7812
aVaa1457
p7813
aVsisters
p7814
aVsunburn
p7815
aVtighter
p7816
aVnumbered
p7817
aVgeraghty
p7818
aVrecourse
p7819
aVcenter
p7820
aVantonio
p7821
aVdualcam
p7822
aVoops
p7823
aVsets
p7824
aVstarboard
p7825
aVraving
p7826
aVholdon
p7827
aVusual
p7828
aVbarking
p7829
aVexecutive
p7830
aVdomestic
p7831
aVinterim
p7832
aVbooks
p7833
aVthreehourslate
p7834
aVdakota
p7835
aVtone
p7836
aVwether
p7837
aVflashlight
p7838
aVads
p7839
aVeffin
p7840
aVnastiest
p7841
aVstatusmatch
p7842
aVbadcustomerservice
p7843
aVlake
p7844
aVbench
p7845
aVgeraldine
p7846
aVadd
p7847
aVaruba
p7848
aVada
p7849
aVc12
p7850
aVembossed
p7851
aVc17
p7852
aVc16
p7853
aVmatch
p7854
aVc14
p7855
aVresolved
p7856
aVtests
p7857
aVclusterfucks
p7858
aVfyi
p7859
aVdeployment
p7860
aVhubbys
p7861
aVdisplaced
p7862
aVincomprehensible
p7863
aVsuccess
p7864
aVvibrant
p7865
aVadmitted
p7866
aVdickheads
p7867
aVkuala
p7868
aVsoft
p7869
aVheel
p7870
aVitalian
p7871
aVaccessible
p7872
aVflyswa
p7873
aValive
p7874
aVswimsuits
p7875
aVhair
p7876
aVconvey
p7877
aVrecommendation
p7878
aVproper
p7879
aVtxfd
p7880
aVstuffy
p7881
aVshrug
p7882
aVbttr
p7883
aVtmr
p7884
aVest
p7885
aVpoorform
p7886
aVesp
p7887
aVhurricane
p7888
aVassuming
p7889
aVscrewed
p7890
aVtmm
p7891
aVithaca
p7892
aVconference
p7893
aVpepper
p7894
aVnoise
p7895
aVslight
p7896
aVcombative
p7897
aVaa362
p7898
aVaa363
p7899
aVacosta
p7900
aVstellar
p7901
aVexpire
p7902
aVaadelay
p7903
aVworthy
p7904
aVsnapped
p7905
aVpreventative
p7906
aVretribution
p7907
aVa1
p7908
aVactual
p7909
aVboards
p7910
aVpreggo
p7911
aVjvmchat
p7912
aVaal
p7913
aVtomo
p7914
aVnevertoldus
p7915
aVa4
p7916
aVvx919
p7917
aVafterall
p7918
aVchildrens
p7919
aVdowngrading
p7920
aVlastflightofthenight
p7921
aVpreexisting
p7922
aVsubmits
p7923
aVfunctional
p7924
aVbillions
p7925
aVclearvision
p7926
aVdoesnt
p7927
aVfemale
p7928
aVlightyears
p7929
aVbarcodes
p7930
aVwack
p7931
aVcartago
p7932
aVrushed
p7933
aVrtw
p7934
aVlostsuitcase
p7935
aVusairwaysfflyer
p7936
aVblegh
p7937
aVbiggest
p7938
aVbuy
p7939
aVchatting
p7940
aVbur
p7941
aVbus
p7942
aVbrand
p7943
aVpreparations
p7944
aVreminds
p7945
aVrepeated
p7946
aVstepup
p7947
aVplague
p7948
aVusairway
p7949
aVmemphis
p7950
aVbug
p7951
aVlynn
p7952
aVwise
p7953
aVwish
p7954
aVflip
p7955
aVbirthdate
p7956
aVbyod
p7957
aVminutes
p7958
aVexcruciatingly
p7959
aVreplying
p7960
aVpin
p7961
aVpia
p7962
aVpic
p7963
aVpid
p7964
aVpie
p7965
aVpig
p7966
aVperiods
p7967
aVstuckonaplane
p7968
aVpir
p7969
aVmysteriously
p7970
aVpit
p7971
aVcampus
p7972
aVwastedtime
p7973
aVnw
p7974
aVcorporation
p7975
aVclaiming
p7976
aVdetail
p7977
aVvirtual
p7978
aVunaccounted
p7979
aVnelson
p7980
aVmalcome
p7981
aVbundle
p7982
aVluvforsw
p7983
aVcheque
p7984
aVplitt
p7985
aVgoin
p7986
aVresolution
p7987
aVyell
p7988
aVaccidents
p7989
aVbaked
p7990
aVwheresthecustomerserviceat
p7991
aVdpdfpp
p7992
aVlimited
p7993
aVua978
p7994
aVhats
p7995
aVhitch
p7996
aVsleet
p7997
aVfacilities
p7998
aVsleep
p7999
aVhating
p8000
aVhate
p8001
aVpoorly
p8002
aVhappybirthday
p8003
aVpennypincher
p8004
aVpatches
p8005
aVjaipur
p8006
aVparis
p8007
aVtweet
p8008
aVcushy
p8009
aVmwa
p8010
aVallyoucanjetpass
p8011
aVproblemss
p8012
aVcaused
p8013
aVgracious
p8014
aVstarted
p8015
aVflyingitforward
p8016
aVlouder
p8017
aVrisk
p8018
aVrise
p8019
aVjack
p8020
aVvastly
p8021
aVencounter
p8022
aVschool
p8023
aVqqbmug
p8024
aVbestfriend
p8025
aVcheapoairchat
p8026
aVwudda
p8027
aVcommute
p8028
aVua5184
p8029
aVshafted
p8030
aVfairfax
p8031
aVenjoy
p8032
aVbicycle
p8033
aVua4636
p8034
aVconsistent
p8035
aVguidelines
p8036
aVdirect
p8037
aVsnafu
p8038
aVnavimumbai
p8039
aVnail
p8040
aVsurrounding
p8041
aVfabulous
p8042
aVestimated
p8043
aVblue
p8044
aVhide
p8045
aVselected
p8046
aVprofitability
p8047
aVliberty
p8048
aVkul
p8049
aVsupplies
p8050
aVemily
p8051
aVa330
p8052
aVinternships
p8053
aVpats
p8054
aVkicked
p8055
aVrebooked
p8056
aVramps
p8057
aVhundreds
p8058
aVpath
p8059
aVsafetyconcerns
p8060
aVvoice
p8061
aVhunting
p8062
aVforum
p8063
aVluggage
p8064
aVauction
p8065
aVleaves
p8066
aVchanged
p8067
aVelpaso
p8068
aVua1037
p8069
aVanalysts
p8070
aVallready
p8071
aVwdw
p8072
aVchanges
p8073
aVmidway
p8074
aVvacations
p8075
aVstray
p8076
aVjulie
p8077
aVvisibly
p8078
aVfeelings
p8079
aVpatience
p8080
aVridicules
p8081
aVlostluggage
p8082
aValbanyairport
p8083
aVheathrow
p8084
aVassed
p8085
aVdoyourjob
p8086
aVlessening
p8087
aVasses
p8088
aVnoting
p8089
aVasset
p8090
aVpepperidge
p8091
aVjaramillo
p8092
aVwantmymoneyback
p8093
aVflighting
p8094
aVflight417
p8095
aVphone
p8096
aVexcellent
p8097
aVrobbing
p8098
aVoutdated
p8099
aVtampa
p8100
aVabundance
p8101
aVmd
p8102
aVjoin
p8103
aVmc
p8104
aVcheapest
p8105
aVmm
p8106
aVoverloaded
p8107
aVtremendously
p8108
aVmi
p8109
aVentertained
p8110
aVwarn
p8111
aVmt
p8112
aVmv
p8113
aVmpagent
p8114
aVms
p8115
aVusairwayssuck
p8116
aVcarmen
p8117
aVmx
p8118
aVbevies
p8119
aVfriendlysky
p8120
aVtaxiway
p8121
aVcrazinessintherockies
p8122
aVoverheard
p8123
aVtroubleshot
p8124
aVscheduling
p8125
aVguarantee
p8126
aVnofun
p8127
aVprobls
p8128
aVscolding
p8129
aVua6366
p8130
aVreturning
p8131
aVhavana
p8132
aVwriters
p8133
aVgivethemraises
p8134
aVadjacent
p8135
aVgate
p8136
aVcharging
p8137
aVbadly
p8138
aVpoker
p8139
aVelizabeth
p8140
aVmess
p8141
aVchairmanlove
p8142
aVsparkled
p8143
aVbefor
p8144
aVjumping
p8145
aVdanny
p8146
aVamid
p8147
aVenter
p8148
aVflightaware
p8149
aVshadier
p8150
aVn8661a
p8151
aVus5235
p8152
aVexpects
p8153
aVlondon
p8154
aVcrumbs
p8155
aVstdby
p8156
aVcll
p8157
aVsnowstorms
p8158
aVhypocrisy
p8159
aVfairway
p8160
aVcle
p8161
aVhowdy
p8162
aVrockingthetweets
p8163
aVexpectations
p8164
aVimo
p8165
aVwriting
p8166
aVdestroyed
p8167
aVcondition
p8168
aVclt
p8169
aVcls
p8170
aViowa
p8171
aVtourist
p8172
aVprevented
p8173
aVfinish
p8174
aVus4485
p8175
aVrental
p8176
aVnetherlands
p8177
aValex
p8178
aVbosnia
p8179
aVnotified
p8180
aVpotatoes
p8181
aVkicking
p8182
aVdetroit
p8183
aVfilling
p8184
aVaffiliate
p8185
aVoahu
p8186
aVtfw1
p8187
aVsportsbiz
p8188
aVsigning
p8189
aVhanger
p8190
aVdiane
p8191
aVapplicable
p8192
aVcelebrating
p8193
aVrailed
p8194
aVunexplained
p8195
aVsaturday
p8196
aVfunflightattendants
p8197
aVdriving
p8198
aVsang
p8199
aVgod
p8200
aVmotel
p8201
aVpensacola
p8202
aVplatinummember
p8203
aVpleasehelp
p8204
aVc38
p8205
aVnite
p8206
aVnewly
p8207
aVdestinations
p8208
aVblames
p8209
aVindependence
p8210
aVhitawall
p8211
aVarizona
p8212
aVinop
p8213
aVclosings
p8214
aVeternal
p8215
aVfree
p8216
aVfred
p8217
aVstreamline
p8218
aVcounterparts
p8219
aVfreq
p8220
aVinexpensive
p8221
aVcorrectness
p8222
aVdays
p8223
aVpriorities
p8224
aVunitedairlinessucks
p8225
aVheck
p8226
aVhopeless
p8227
aVsoda
p8228
aVlastflightwithyouever
p8229
aVonto
p8230
aVrang
p8231
aVnhl
p8232
aVcabinfever
p8233
aVmarisol
p8234
aVhearing
p8235
aVfantasy
p8236
aVadopted
p8237
aVonlywaytofly
p8238
aVsarcasm
p8239
aVtop
p8240
aVbitcoin
p8241
aVfiction
p8242
aVtok
p8243
aVconfirming
p8244
aVton
p8245
aVidnumber8569822
p8246
aVtom
p8247
aVkewl
p8248
aVinconvenient
p8249
aVilliterate
p8250
aVsignup
p8251
aVserve
p8252
aVdreampath
p8253
aVrepeatably
p8254
aVincur
p8255
aVwestern
p8256
aVbestemployees
p8257
aVreclining
p8258
aVscenario
p8259
aVfrankly
p8260
aVoverfilled
p8261
aVbloated
p8262
aVtourists
p8263
aVclasses
p8264
aVoregon
p8265
aVmisunderstood
p8266
aVstacey
p8267
aVbridge
p8268
aVdonkey
p8269
aVfashion
p8270
aVran
p8271
aVcourtsey
p8272
aVtalking
p8273
aVlbc
p8274
aVlbb
p8275
aVadvising
p8276
aVlunchtime
p8277
aVscrews
p8278
aVbdng
p8279
aVspade
p8280
aVray
p8281
aVtraditionally
p8282
aVrelayed
p8283
aVsteamboat
p8284
aVyucki
p8285
aVsnow
p8286
aVupholding
p8287
aVcontact
p8288
aVhatch
p8289
aVunited1k
p8290
aVrides
p8291
aVclunky
p8292
aVstiil
p8293
aVfuckinlame
p8294
aVdmed
p8295
aVlovetotravel
p8296
aVplenty
p8297
aVimateacher
p8298
aVcoin
p8299
aVinexcusable
p8300
aVpromotions
p8301
aVunited13
p8302
aVnocompensation
p8303
aVmetal
p8304
aVreputation
p8305
aVnotsurprising
p8306
aVentertaining
p8307
aVchewey
p8308
aVcolumbian
p8309
aVbait
p8310
aVoverpriced
p8311
aVcontacted
p8312
aVsaga
p8313
aVrandom
p8314
aVmechanicalissue
p8315
aVpops
p8316
aVcolors
p8317
aVreissue
p8318
aVradio
p8319
aVsolutions
p8320
aVearth
p8321
aVavailability
p8322
aVl8r
p8323
aVoverwhelming
p8324
aVspite
p8325
aVsituations
p8326
aVdelays
p8327
aVwasteoftime
p8328
aVimjustsaying
p8329
aVlodge
p8330
aVannounce
p8331
aVoct
p8332
aVpsgrs
p8333
aVwontflyagainwithyou
p8334
aVsunglasses
p8335
aVfabrice
p8336
aVwatch
p8337
aVfluid
p8338
aVgogo
p8339
aVamazon
p8340
aVtammy
p8341
aVdespite
p8342
aVreport
p8343
aVamazingflightcrew
p8344
aVinterrogated
p8345
aVpouting
p8346
aVconsiderate
p8347
aVcountries
p8348
aVunderstaffing
p8349
aVsouthwestfail
p8350
aVidiotic
p8351
aVtwice
p8352
aVthanku
p8353
aVkauai
p8354
aVin1st
p8355
aVruins
p8356
aValistpreferred
p8357
aVf623
p8358
aVmfps
p8359
aVroadmap
p8360
aVnum
p8361
aVsubmitted
p8362
aVcorrupt
p8363
aVlostrevenue
p8364
aVnoodles
p8365
aVafterward
p8366
aVcapacity
p8367
aVcontinually
p8368
aVgrandmother
p8369
aVfinger
p8370
aVmuc
p8371
aVhopefully
p8372
aVmissedconnection
p8373
aVunconscionable
p8374
aVapproach
p8375
aVmuh
p8376
aVreiterate
p8377
aVjose
p8378
aVconfusion
p8379
aVweak
p8380
aVboss
p8381
aVtakingthistothetop
p8382
aVhtml5
p8383
aVdedication
p8384
aVnews
p8385
aVnixchangefees
p8386
aVimprove
p8387
aVfaced
p8388
aVhours
p8389
aVprotect
p8390
aVproviding
p8391
aVfault
p8392
aVplanebroken
p8393
aVplayers
p8394
aVmerging
p8395
aVkitties
p8396
aVexpense
p8397
aVlenses
p8398
aVsalad
p8399
aVbetting
p8400
aVkaren
p8401
aVyday
p8402
aVtrust
p8403
aVnovember
p8404
aVnerdbird
p8405
aVaback
p8406
aVbathroom
p8407
aVlastella
p8408
aVcockroaches
p8409
aVquickly
p8410
aVconfident
p8411
aVbeer
p8412
aVadvisories
p8413
aVmiraculously
p8414
aVexpected
p8415
aVf38ish
p8416
aVloft
p8417
aVwaterbury
p8418
aVbereavement
p8419
aVtransatlantic
p8420
aVcraft
p8421
aVtanpa
p8422
aVcatch
p8423
aVpatronizing
p8424
aVlifevests
p8425
aVfs4ve7
p8426
aVsurfboardbag
p8427
aVhumanity
p8428
aVdept
p8429
aVfallow
p8430
aVthousandth
p8431
aVstopping
p8432
aVboofin
p8433
aVprocedure
p8434
aVhorriblecustomerservice
p8435
aVrunaround
p8436
aVexpenses
p8437
aVexperts
p8438
aVbrutal
p8439
aVfollowback
p8440
aVsurcharge
p8441
aVaa65
p8442
aVaa67
p8443
aVsuggest
p8444
aVbringyourown
p8445
aVcomplex
p8446
aVinventory
p8447
aVbands
p8448
aVsatellite
p8449
aVsched
p8450
aVsouthworst
p8451
aVpick
p8452
aVunfriendlyskies
p8453
aVgreeted
p8454
aVportal
p8455
aVcharacters
p8456
aVmaimi
p8457
aVinsisted
p8458
aVmentioning
p8459
aVshortly
p8460
aVjvstatus
p8461
aVprioritize
p8462
aVocean
p8463
aVsavings
p8464
aVimpediment
p8465
aVnotgoodenough
p8466
aVincapable
p8467
aVmother
p8468
aVhearts
p8469
aValabama
p8470
aVdads
p8471
aVseasonal
p8472
aVagency
p8473
aVappease
p8474
aVdeparted
p8475
aVunemployment
p8476
aVlaptop
p8477
aVuseles
p8478
aVgrades
p8479
aVbattles
p8480
aVbuzzkill
p8481
aVdepart
p8482
aVwjere
p8483
aVelm
p8484
aVn615jb
p8485
aVcherry
p8486
aVnobackup
p8487
aVsprinkled
p8488
aVteenager
p8489
aVels
p8490
aVelp
p8491
aVtolerable
p8492
aVbackhome
p8493
aVturquoise
p8494
aVaateam
p8495
aVtactic
p8496
aVimprovetheprocess
p8497
aVbreaks
p8498
aVworksnicely
p8499
aVcultural
p8500
aVdescending
p8501
aVdivert
p8502
aVrumor
p8503
aVapart
p8504
aVmelting
p8505
aVpeeved
p8506
aVgift
p8507
aVhunt
p8508
aVorlando
p8509
aVzoom
p8510
aVany1
p8511
aVspecific
p8512
aVinformative
p8513
aVunexpactable
p8514
aVoffices
p8515
aVofficer
p8516
aVarbitrary
p8517
aVhung
p8518
aVweyburn
p8519
aVtiredofwaiting
p8520
aVdishonest
p8521
aVitscostingmeincome
p8522
aVreevaluate
p8523
aVmalaysia
p8524
aVclubs
p8525
aVdispleasure
p8526
aVescape
p8527
aVadvertise
p8528
aVgtsvyb
p8529
aVua507
p8530
aValamo
p8531
aVear
p8532
aVcompanions
p8533
aVreinvest
p8534
aVice
p8535
aVrio
p8536
aVcng
p8537
aVicy
p8538
aVcnn
p8539
aVchristmas
p8540
aVbooking
p8541
aVgoingtovegas
p8542
aVcore
p8543
aVdeleted
p8544
aVdisappeared
p8545
aVdiscount
p8546
aVtwa
p8547
aVcorp
p8548
aVdissapointment
p8549
aVrevisiting
p8550
aVplug
p8551
aVneveind
p8552
aVeat
p8553
aVcowboy
p8554
aVburbank
p8555
aVdinner
p8556
aVsupvsr
p8557
aVensure
p8558
aVptfo
p8559
aVefforts
p8560
aVsept
p8561
aVlikingyoulessandless
p8562
aVduke
p8563
aVaha
p8564
aVahh
p8565
aVgetmorehands
p8566
aVobscene
p8567
aVppl
p8568
aVaccommodate
p8569
aVgems
p8570
aVua5025
p8571
aVcrewe
p8572
aVrely
p8573
aVfoodallergies
p8574
aVq4vnmb
p8575
aVgig
p8576
aVstuck
p8577
aVanderson
p8578
aVcrews
p8579
aVgin
p8580
aVstuckintheloop
p8581
aVhead
p8582
aVamateur
p8583
aVabysmal
p8584
aVattempted
p8585
aVgorgeous
p8586
aVremoves
p8587
aVwireless
p8588
aVheat
p8589
aVuncle
p8590
aVsatisfactorily
p8591
aVsolar
p8592
aVraft
p8593
aVremoved
p8594
aVversions
p8595
aVsupp
p8596
aVbeatriz
p8597
aVua26
p8598
aVua22
p8599
aVruined
p8600
aVadore
p8601
aVsubmitting
p8602
aVchillycvz
p8603
aVnerds
p8604
aVduecto
p8605
aVgoodgenes
p8606
aVsum1
p8607
aVindy
p8608
aVshined
p8609
aVsometime
p8610
aVnny
p8611
aVbelievable
p8612
aVannoying
p8613
aVcheck
p8614
aVblatantly
p8615
aVwaldorf
p8616
aVnj
p8617
aVtix
p8618
aVnm
p8619
aVcolder
p8620
aVna
p8621
aVcommercials
p8622
aVnc
p8623
aVnd
p8624
aVne
p8625
aVtil
p8626
aVny
p8627
aVsetting
p8628
aVstagnant
p8629
aVpapers
p8630
aVvanished
p8631
aVdepot
p8632
aVnt
p8633
aVtia
p8634
aVus2146
p8635
aVunbalanced
p8636
aVeternity
p8637
aVpicture
p8638
aVreconsider
p8639
aVphoenix
p8640
aVthanksjetblue
p8641
aVplanestrainsandautomobiles
p8642
aVflightlations
p8643
aVgoodgriefpeople
p8644
aVapologizing
p8645
aVfaster
p8646
aVnthin
p8647
aVwway
p8648
aVserious
p8649
aVneighbors
p8650
aVcoach
p8651
aVroo
p8652
aVjetsetter
p8653
aVcelebs
p8654
aVroc
p8655
aValternatives
p8656
aVouch
p8657
aVleads
p8658
aVsnit
p8659
aVcnx
p8660
aVempathize
p8661
aVrow
p8662
aVnl
p8663
aVclarification
p8664
aVbqn
p8665
aVenvironment
p8666
aVsmoothflight
p8667
aVcharge
p8668
aVthankgoodness
p8669
aVpromoting
p8670
aVflightattendant
p8671
aVagreed
p8672
aVadvantage
p8673
aVstickingtodelta
p8674
aVunfamiliar
p8675
aVsloppy
p8676
aVstonewalled
p8677
aVclouds
p8678
aVimpressive
p8679
aVlevel
p8680
aVphilippines
p8681
aVcoffeeneeded
p8682
aVpeeps
p8683
aVhawaii
p8684
aVstandards
p8685
aVohare
p8686
aVicu
p8687
aVphillip
p8688
aVquick
p8689
aVaccumulation
p8690
aVyall
p8691
aVlifeneedsfrosting
p8692
aVslower
p8693
aVporn
p8694
aVtrend
p8695
aVobsolete
p8696
aVtrublue
p8697
aVvoucher
p8698
aVcomforting
p8699
aVtakeoff
p8700
aVluvagent
p8701
aVaa3074
p8702
aVport
p8703
aVsubstitute
p8704
aVdrinks
p8705
aVapplepay
p8706
aVstressful
p8707
aVconstitution
p8708
aVnationalized
p8709
aVpleasee
p8710
aVmall
p8711
aVtarmac
p8712
aVtranscontinental
p8713
aVmardigras2015
p8714
aVgoes
p8715
aVreply
p8716
aVjilted
p8717
aVyeseniahernandez
p8718
aVbeautifull
p8719
aVjax2bna
p8720
aVgroupa
p8721
aVwindchill
p8722
aVpartners
p8723
aVaa215
p8724
aVwater
p8725
aVentertain
p8726
aVshaquille
p8727
aVqsvgru
p8728
aVthirty
p8729
aVjeanine
p8730
aVrethink
p8731
aVsnowforce
p8732
aVguilty
p8733
aVexams
p8734
aVseams
p8735
aVhospitality
p8736
aVweird
p8737
aVentrees
p8738
aVonlyblue
p8739
aVking
p8740
aVcurvygirltravels
p8741
aVusairsucks
p8742
aVhumour
p8743
aVcredited
p8744
aVdeice
p8745
aViusedtoloveu
p8746
aVcandice
p8747
aVtouchdown
p8748
aVprompt
p8749
aVflight16
p8750
aVcrisis
p8751
aVprem
p8752
aVlikeagirl
p8753
aVhandled
p8754
aVmsy
p8755
aVbrighter
p8756
aVscan
p8757
aVmsp
p8758
aVmsn
p8759
aVhandles
p8760
aVhandler
p8761
aViphone
p8762
aVmemory
p8763
aVmsg
p8764
aVhizouse
p8765
aVprev
p8766
aVpres
p8767
aVchapter
p8768
aVkerry
p8769
aVriot
p8770
aVclicking
p8771
aVneglected
p8772
aVfudgin
p8773
aVavgeek
p8774
aVmtgs
p8775
aVfuel
p8776
aVbeers
p8777
aVhopetogetanswersoon
p8778
aVlocal
p8779
aVgjqx6j
p8780
aVminimum
p8781
aVaircrafts
p8782
aVua246
p8783
aVzcc82u
p8784
aVcheapslogannotmotto
p8785
aVlaughter
p8786
aVcustomerloyalty
p8787
aVearphone
p8788
aVfigure
p8789
aVnexus
p8790
aVgeeks
p8791
aVdropped
p8792
aVunloads
p8793
aVkys
p8794
aVcounting
p8795
aVjetblue
p8796
aVlusaka
p8797
aVua4753
p8798
aVrequirements
p8799
aVbked
p8800
aVsecured
p8801
aVcuba
p8802
aVmismanagement
p8803
aVb91
p8804
aValway
p8805
aVvital
p8806
aVfourth
p8807
aVplus
p8808
aVspeaks
p8809
aVnarrowly
p8810
aVunbelievable
p8811
aVcrashes
p8812
aVinformation
p8813
aVcrashed
p8814
aVlevi
p8815
aVbirthday
p8816
aVtrickling
p8817
aVmoodlitmonday
p8818
aVunbelievably
p8819
aVwestpalmbeach
p8820
aVdisheartening
p8821
aVua863
p8822
aVua862
p8823
aVthankyouforeverything
p8824
aVdevs
p8825
aVinform
p8826
aVmanana
p8827
aVrefund
p8828
aVexclusive
p8829
aVcomfort
p8830
aVfood
p8831
aVmidnight
p8832
aVineedabeer
p8833
aVmotions
p8834
aVploughs
p8835
aVblocked
p8836
aVdreading
p8837
aVwhyareyouyelling
p8838
aVchips
p8839
aVloveisintheair
p8840
aVsuboptimal
p8841
aVoffers
p8842
aVhappened
p8843
aVqualifies
p8844
aVweathers
p8845
aVmoms
p8846
aVconversations
p8847
aVflight108
p8848
aVbound
p8849
aVunbelieavle
p8850
aVpermissions
p8851
aVua5029
p8852
aVterm
p8853
aVequality
p8854
aVname
p8855
aVclutch
p8856
aVhstg
p8857
aVdebating
p8858
aVdisunited
p8859
aVwasappreciated
p8860
aVrealise
p8861
aVmuchas
p8862
aVrethinking
p8863
aVgras
p8864
aVunproductive
p8865
aVhiccups
p8866
aVwhiplash
p8867
aVcatching
p8868
aVbegun
p8869
aVflightdelay
p8870
aVmyrtle
p8871
aVsunrise
p8872
aVplans
p8873
aVultimately
p8874
aVcostumer
p8875
aVinfuriated
p8876
aVprofit
p8877
aVtwtr
p8878
aVudub
p8879
aVdehydrated
p8880
aVhacked
p8881
aVbless
p8882
aVbugging
p8883
aVmaneuver
p8884
aVattended
p8885
aVqueries
p8886
aValbuquerque
p8887
aVunfriendly
p8888
aVflyer
p8889
aVjudeo
p8890
aVnightmarish
p8891
aVaccommodation
p8892
aVyup
p8893
aVc47
p8894
aVestelle
p8895
aVmotion
p8896
aVraleigh
p8897
aVswing
p8898
aVcharleston
p8899
aVgusty
p8900
aVlasalle
p8901
aVflyunited
p8902
aVorigin
p8903
aVrevenue
p8904
aVaccruing
p8905
aVawfully
p8906
aVcuzco
p8907
aVmultibillion
p8908
aVcabcelled
p8909
aVacct
p8910
aVfight
p8911
aVgeorge
p8912
aVmillions
p8913
aVrented
p8914
aVwelldone
p8915
aVsurveys
p8916
aVua1673
p8917
aViah
p8918
aVvirgin
p8919
aVgis2015
p8920
aViad
p8921
aVplastic
p8922
aVbahamas
p8923
aVreturns
p8924
aVmultipledooropeningandclosing
p8925
aVwhite
p8926
aVdonotflywiththem
p8927
aVchoppiest
p8928
aVhug
p8929
aVhub
p8930
aVrevue
p8931
aVseason
p8932
aVhuh
p8933
aVreleased
p8934
aValas
p8935
aVconsumermarketing
p8936
aVcopy
p8937
aVholder
p8938
aVserv
p8939
aVwide
p8940
aVwewanttoknow
p8941
aVunfortunately
p8942
aVrequire
p8943
aVlegacy
p8944
aVtweeting
p8945
aVcards
p8946
aVpoisoning
p8947
aVoutcome
p8948
aVdissapointed
p8949
aVpre
p8950
aVana
p8951
aVfriendlyteam
p8952
aVann
p8953
aVprn
p8954
aVpri
p8955
aVshowup
p8956
aVreno
p8957
aVant
p8958
aVmates
p8959
aVrent
p8960
aVans
p8961
aVua381
p8962
aVbatting
p8963
aVabsoulutely
p8964
aVconversion
p8965
aVcustomerappreciation
p8966
aVaal65
p8967
aVideas
p8968
aVwandered
p8969
aVdining
p8970
aVideal
p8971
aVrulesshouldbend
p8972
aVnochill
p8973
aVmiracles
p8974
aVwrench
p8975
aVsurf
p8976
aVaspen
p8977
aVfalls
p8978
aVdonation
p8979
aVtnx
p8980
aVcleared
p8981
aVprecludes
p8982
aVconsidered
p8983
aVproud
p8984
aVhungry
p8985
aVmakessense
p8986
aVhear
p8987
aVsenior
p8988
aVluz
p8989
aVdetective
p8990
aVnomorevirgin
p8991
aVnowarmclothes
p8992
aVspaced
p8993
aVbluemanity
p8994
aVcheat
p8995
aVcheap
p8996
aVtkt
p8997
aVspaces
p8998
aVtks
p8999
aVwhch
p9000
aVgenius
p9001
aVswamped
p9002
aVbelieving
p9003
aVtock
p9004
aVcase8719519
p9005
aVfligth
p9006
aVemployeerelations
p9007
aVlondonfashionweek
p9008
aVbegging
p9009
aVmultimillion
p9010
aVisit
p9011
aVinstalled
p9012
aVfreaking
p9013
aVclosure
p9014
aVreveal
p9015
aVregarding
p9016
aVnomoaa
p9017
aVpimentel
p9018
aVimpolite
p9019
aVembassy
p9020
aVclowns
p9021
aVpredicted
p9022
aVbought
p9023
aVdiscussing
p9024
aVignored
p9025
aVpummeled
p9026
aVsigns
p9027
aVflt635
p9028
aVconnections
p9029
aVcollege
p9030
aVsupv
p9031
aVignores
p9032
aVparking
p9033
aVapologies
p9034
aVua23
p9035
aVchocked
p9036
aVencouraged
p9037
aVfails
p9038
aVsouthwestsmoothie
p9039
aVcommutation
p9040
aVcrystal
p9041
aVfederal
p9042
aVsubsequent
p9043
aVreview
p9044
aVknoxville
p9045
aVoutsourcing
p9046
aVitfits
p9047
aVoutside
p9048
aVaa304
p9049
aVarrival
p9050
aVcontrollable
p9051
aVcomp
p9052
aVrampers
p9053
aVdontflyusairways
p9054
aVba1551
p9055
aVguitar
p9056
aVdisrespectfully
p9057
aVovercharge
p9058
aVflightness
p9059
aVmultiplier
p9060
aVcoma
p9061
aVpens
p9062
aVcities
p9063
aVhdndl11785
p9064
aVprescreen
p9065
aVmissedflight
p9066
aVquiet
p9067
aVcontract
p9068
aVneed2know
p9069
aVwiyh
p9070
aVduty
p9071
aValwayshappensthere
p9072
aVcustservicehasnonumber
p9073
aVcolor
p9074
aVpos
p9075
aVinsist
p9076
aVsatisfaction
p9077
aVjammed
p9078
aVnohelponboard
p9079
aVbizarre
p9080
aVpoc
p9081
aVnicole
p9082
aVwhatstheholdup
p9083
aVhardly
p9084
aVravioli
p9085
aVengine
p9086
aVdirection
p9087
aVbummer
p9088
aVrobbed
p9089
aVreimburse
p9090
aVandrew
p9091
aVtysvm
p9092
aVattentive
p9093
aVspirit
p9094
aVprotocols
p9095
aVpilot
p9096
aVpaying
p9097
aVhughes
p9098
aVlimits
p9099
aVamend
p9100
aVcash
p9101
aVsleekmoney
p9102
aVgenious
p9103
aVabducted
p9104
aVmidght
p9105
aVcoupled
p9106
aVtelephone
p9107
aVneverflyvirginforbusiness
p9108
aVpaxex
p9109
aVgetyourlife
p9110
aVreminded
p9111
aVtrip
p9112
aVethiopia
p9113
aVbuys
p9114
aVbadservice
p9115
aVreminder
p9116
aVevents
p9117
aVvx363
p9118
aVweek
p9119
aVnh
p9120
aVonboad
p9121
aVpickng
p9122
aVscreenshot
p9123
aVapplaud
p9124
aVtravelpulse
p9125
aVdriver
p9126
aVdrives
p9127
aVairlinegave
p9128
aVdriven
p9129
aVcanister
p9130
aVarose
p9131
aVchanging
p9132
aVfaithful
p9133
aVlonging
p9134
aVmidterm
p9135
aVckin
p9136
aVargueing
p9137
aVokc
p9138
aVnh10
p9139
aVdehli
p9140
aVrelief
p9141
aVrelied
p9142
aVinability
p9143
aVmodel
p9144
aVreward
p9145
aVwhereas
p9146
aVfrigid
p9147
aVcudtomers
p9148
aVclog
p9149
aVtip
p9150
aVcolonist
p9151
aVactions
p9152
aVinflux
p9153
aVkill
p9154
aVbaldwin
p9155
aVincurring
p9156
aVhalfway
p9157
aVblow
p9158
aVannouncement
p9159
aVgather
p9160
aVtim
p9161
aVexcept
p9162
aVblog
p9163
aVua1589
p9164
aViwoulddoanythingforlove
p9165
aVsosmart
p9166
aVscheduled
p9167
aVevasive
p9168
aVeasily
p9169
aVmugged
p9170
aVdelhi
p9171
aVvirginia
p9172
aVloaned
p9173
aVaif2015
p9174
aVschedules
p9175
aVloaner
p9176
aVaccepted
p9177
aVunwilling
p9178
aVletsgoalready
p9179
aVbuddies
p9180
aVtowed
p9181
aVua1059
p9182
aVgodelta
p9183
aVsanity
p9184
aVwaiving
p9185
aVsubstandard
p9186
aVpereira
p9187
aVreduced
p9188
aVweve
p9189
aVjoking
p9190
aVmadrid
p9191
aVutevgw
p9192
aVnaelah
p9193
aVpacific
p9194
aVrespect
p9195
aVintact
p9196
aVredeeming
p9197
aVprovided
p9198
aVcaribbean
p9199
aVmood
p9200
aVtoken
p9201
aVlegal
p9202
aVmoon
p9203
aVhipster
p9204
aVprovides
p9205
aVprovider
p9206
aVquitting
p9207
aVmoneyelsewhere
p9208
aVmarriage
p9209
aVtxting
p9210
aVlmfao
p9211
aVswapic
p9212
aVcommunicate
p9213
aVpolite
p9214
aVloaaret
p9215
aVtrivialize
p9216
aVweatherless
p9217
aVbeaches
p9218
aVok
p9219
aVoh
p9220
aVwut
p9221
aVoc
p9222
aVrozana
p9223
aVinforming
p9224
aVstand
p9225
aVoy
p9226
aVow
p9227
aVfusturated
p9228
aVou
p9229
aVdiscusses
p9230
aVos
p9231
aVop
p9232
aVladies
p9233
aVitover
p9234
aVreactions
p9235
aVcommunication
p9236
aVitenary
p9237
aVua5525
p9238
aVaccounts
p9239
aVamiga
p9240
aVgary
p9241
aVbaggages
p9242
aVlastly
p9243
aVempathetic
p9244
aVsodone
p9245
aVstrict
p9246
aVghettofab
p9247
aVharf
p9248
aVdeteriorating
p9249
aVtiffany
p9250
aVflight122
p9251
aVjua
p9252
aVwernicke
p9253
aVregard
p9254
aVamongst
p9255
aVflightcancelled
p9256
aVeliz
p9257
aVapplying
p9258
aVproactively
p9259
aVcalderon
p9260
aVnightlife
p9261
aVstrongly
p9262
aVtoilet
p9263
aVtaylor
p9264
aVfist
p9265
aVtaste
p9266
aVrevieving
p9267
aVminneapolis
p9268
aVintro
p9269
aVtasty
p9270
aVjblu
p9271
aVspends
p9272
aVincorrect
p9273
aVe36
p9274
aVua1619
p9275
aVcomped
p9276
aVrubbed
p9277
aVidiot
p9278
aVdeserve
p9279
aVua1616
p9280
aVrubber
p9281
aVpainted
p9282
aVannouncements
p9283
aVtrash
p9284
aVrequested
p9285
aVforcedovernight
p9286
aVchampionship
p9287
aVbad4business
p9288
aVseparate
p9289
aVbeought
p9290
aVfinale
p9291
aVreposting
p9292
aVincludes
p9293
aVfasten
p9294
aVincluded
p9295
aVfinals
p9296
aVlipstick
p9297
aVbooked
p9298
aVapplause
p9299
aVcalls
p9300
aVwife
p9301
aVinvest
p9302
aVqantas
p9303
aVwifi
p9304
aVwebsites
p9305
aVderrick
p9306
aVitin
p9307
aVplatter
p9308
aVannamarie
p9309
aVmontego
p9310
aVpto
p9311
aVrudeservice
p9312
aVchinese
p9313
aVali
p9314
aVlack
p9315
aValb
p9316
aVfwwe7f
p9317
aVtoplay
p9318
aVpty
p9319
aVfollow
p9320
aValt
p9321
aVua1260
p9322
aVpts
p9323
aVua1266
p9324
aVlining
p9325
aVassuage
p9326
aVvacancies
p9327
aVthursday
p9328
aVremoval
p9329
aVaaron
p9330
aVprogram
p9331
aVsiblings
p9332
aVroyally
p9333
aVpresentation
p9334
aVishouldhavedriven
p9335
aVactivities
p9336
aVfax
p9337
aVfay
p9338
aVworse
p9339
aVsong
p9340
aVinfringement
p9341
aVfas
p9342
aVticked
p9343
aVfaq
p9344
aVfav
p9345
aVfat
p9346
aVfocus
p9347
aVua63
p9348
aVworst
p9349
aVpromotethatgirl
p9350
aVfam
p9351
aVawful
p9352
aVsickcrew
p9353
aVticket
p9354
aVfaa
p9355
aVnudgenudge
p9356
aVtreating
p9357
aVsentimental
p9358
aVranting
p9359
aVlist
p9360
aVprolonged
p9361
aVgrandfather
p9362
aVundone
p9363
aVliars
p9364
aVlisa
p9365
aVclincher
p9366
aVtel
p9367
aVunitedbreaksguitars
p9368
aVten
p9369
aVtea
p9370
aVted
p9371
aVrobyn
p9372
aVsynergy
p9373
aVrate
p9374
aVdesign
p9375
aVdispatchissue
p9376
aVnbc
p9377
aVfunctioning
p9378
aVmintyfresh
p9379
aVpleasehurryup
p9380
aVnbd
p9381
aVstockhouse
p9382
aVsue
p9383
aVsub
p9384
aVsun
p9385
aVvipliveinthevieyard
p9386
aVticks
p9387
aVtickt
p9388
aVanniversary
p9389
aVversion
p9390
aVattitudes
p9391
aVfcmostinnovative
p9392
aVsux
p9393
aVtoes
p9394
aVmilageplus
p9395
aVtags
p9396
aVunprofessional
p9397
aVheller
p9398
aVleeds
p9399
aVandrews
p9400
aVshoulda
p9401
aVessentials
p9402
aVincrements
p9403
aVyvr
p9404
aVhandlers
p9405
aVriedel
p9406
aVallows
p9407
aVdeadhead
p9408
aVsan68059m
p9409
aVoptions
p9410
aVyoucouldntmakethis
p9411
aVconditioning
p9412
aVsticking
p9413
aVguacamole
p9414
aVthankfully
p9415
aVsuddenly
p9416
aVairway
p9417
aVscreens
p9418
aVtexts
p9419
aVsemester
p9420
aVsch
p9421
aVtrueblue
p9422
aVproceed
p9423
aVbeginning
p9424
aVfaint
p9425
aVbesty
p9426
aVairstairs
p9427
aVshits
p9428
aVdissatisfied
p9429
aVmarkets
p9430
aVvape
p9431
aVminor
p9432
aVtryna
p9433
aVwretched
p9434
aVdefinition
p9435
aVoperators
p9436
aVstick
p9437
aVglad
p9438
aVtotallyconfused
p9439
aVcarryons
p9440
aVterriblecustomerservice
p9441
aVfirstworldproblems
p9442
aVatrocious
p9443
aVsalted
p9444
aVprompting
p9445
aVmodelodenegocio
p9446
aVlocating
p9447
aVabandonment
p9448
aVtransactional
p9449
aVbucks
p9450
aVairplane
p9451
aVlegroom
p9452
aVcourt
p9453
aVgoal
p9454
aVoyu
p9455
aVbreaking
p9456
aVbuenos
p9457
aVdelaney
p9458
aVfakeawards
p9459
aVexplains
p9460
aVsorude
p9461
aVthankjesus
p9462
aVshouldnt
p9463
aVorbitz
p9464
aVbarnum
p9465
aVgettingimpatient
p9466
aVcancun
p9467
aVadditonal
p9468
aVreflect
p9469
aVlighting
p9470
aVstrandedattheairport
p9471
aVfailback
p9472
aVshortcomings
p9473
aVshort
p9474
aVsusan
p9475
aVbizness
p9476
aVshady
p9477
aVdeparture
p9478
aVwedontcarebecauseyoupaidalready
p9479
aVcallback
p9480
aVlhr
p9481
aVshade
p9482
aVrentals
p9483
aVseptember
p9484
aVessence
p9485
aVbrotha
p9486
aVnonperformance
p9487
aVmission
p9488
aVcheapflights
p9489
aVsloow
p9490
aVdisabled
p9491
aVua6076
p9492
aVlogan
p9493
aVstillmakingmepoorthough
p9494
aVspagnuolo
p9495
aVavenue
p9496
aVpainandsuffering
p9497
aVinquiries
p9498
aVbaggageissues
p9499
aVstyle
p9500
aVpray
p9501
aVfixyourstuff
p9502
aVricardo
p9503
aVfailagain
p9504
aVpastmypatienceexpirationdate
p9505
aVargentina
p9506
aVcool
p9507
aVguam
p9508
aVnotnice
p9509
aVreturn
p9510
aVsucking
p9511
aVthatisall
p9512
aVwoulda
p9513
aVspeechless
p9514
aVtellyourstory
p9515
aVmilestone
p9516
aVsighed
p9517
aVwouldt
p9518
aVbigger
p9519
aVinstructions
p9520
aVmarcus
p9521
aVgottogetbetter
p9522
aVaa106
p9523
aVincl
p9524
aVsaveus
p9525
aVrefresh
p9526
aVnotimpressed
p9527
aVdebacle
p9528
aVmastercard
p9529
aVaccommodated
p9530
aVnotevenjv
p9531
aVresiding
p9532
aVneverontime
p9533
aVmalfunction
p9534
aVjetway
p9535
aVweight
p9536
aVposts
p9537
aVmeagan
p9538
aVbrother
p9539
aVflyingretro
p9540
aVexpect
p9541
aVscratching
p9542
aVfl1289
p9543
aVcups
p9544
aVprolly
p9545
aValcohol
p9546
aVwondered
p9547
aVtv4u
p9548
aVhealth
p9549
aVhill
p9550
aVhilo
p9551
aVparadise
p9552
aVlolz
p9553
aVcompounding
p9554
aVunpleased
p9555
aVcraving
p9556
aVrecline
p9557
aVfriday
p9558
aVforgive
p9559
aVabounds
p9560
aVua5631
p9561
aVkillin
p9562
aVcookie
p9563
aVoverbk
p9564
aVattendant
p9565
aVguest
p9566
aVthrown
p9567
aVthread
p9568
aVevermoreroom
p9569
aVthreat
p9570
aVwld
p9571
aVfeed
p9572
aVslapintheface
p9573
aVfeel
p9574
aVrelate
p9575
aVtraveled
p9576
aVfeet
p9577
aVsympathy
p9578
aVsailor
p9579
aVnotify
p9580
aVcolombia
p9581
aVkeepingit100
p9582
aVtraveler
p9583
aVblanc
p9584
aVpasses
p9585
aVstory
p9586
aVtemperature
p9587
aVleading
p9588
aVinterviews
p9589
aVhangs
p9590
aVpassed
p9591
aVgpu
p9592
aVmoar
p9593
aVrecovered
p9594
aVheadache
p9595
aVattendants
p9596
aVoption
p9597
aVrelieved
p9598
aVhotel
p9599
aVscooby
p9600
aVeverglades
p9601
aVluckily
p9602
aVtransaction
p9603
aVhaning
p9604
aVrifle
p9605
aVhavent
p9606
aVconvinced
p9607
aVreflection
p9608
aVlinking
p9609
aValbeit
p9610
aVsauvignon
p9611
aVdouble
p9612
aVua3774
p9613
aVoutrageous
p9614
aVstall
p9615
aVinsulted
p9616
aVdang
p9617
aVoutstanding
p9618
aVmissmykids
p9619
aVisitthegarykellyway
p9620
aVgala
p9621
aVcleaned
p9622
aVtandoori
p9623
aVijustwanttosleep
p9624
aVwilson
p9625
aVnights
p9626
aVwhyairtravelsucks
p9627
aVinterferes
p9628
aVshortstaffed
p9629
aVsche
p9630
aVchairman
p9631
aVfinding
p9632
aVirritated
p9633
aVjudas
p9634
aVtakeresponsibility
p9635
aVadded
p9636
aVelectric
p9637
aVpopulate
p9638
aVwarnings
p9639
aVpark
p9640
aVinconvenience
p9641
aVreach
p9642
aVscreenings
p9643
aVreunited
p9644
aVreact
p9645
aVbafore
p9646
aVbmi
p9647
aVsandra
p9648
aVua3364
p9649
aVlifeisgood
p9650
aVmeasured
p9651
aVdeane
p9652
aVbreaker
p9653
aVgramp
p9654
aVappreciation
p9655
aVwindows
p9656
aVwichita
p9657
aVdevalue
p9658
aVhappyfriday
p9659
aVcaching
p9660
aVnotch
p9661
aVeliza
p9662
aVlying
p9663
aVchaching
p9664
aVcdg
p9665
aVrtb
p9666
aVfong
p9667
aVcdn
p9668
aVrtn
p9669
aVinflexible
p9670
aVshameonyou
p9671
aVcarrie
p9672
aVcosting
p9673
aVbff
p9674
aVsecuring
p9675
aVe11
p9676
aVstairs
p9677
aVrebooting
p9678
aVgrace
p9679
aVpenalty
p9680
aVdelayedl
p9681
aVobama
p9682
aVhip
p9683
aVhit
p9684
aVgains
p9685
aVthelodge
p9686
aVwhichever
p9687
aVblank
p9688
aVhid
p9689
aVfastest
p9690
aVemails
p9691
aVbudapest
p9692
aVltaljx
p9693
aVfriendlyskies
p9694
aVbrendan
p9695
aVinvestigate
p9696
aVtranspacific
p9697
aVplse
p9698
aVactivity
p9699
aVsnowstorm
p9700
aVwrote
p9701
aVbars
p9702
aVcontaced
p9703
aVart
p9704
aVdump
p9705
aVintelligence
p9706
aVenjoyed
p9707
aVachieves
p9708
aVarc
p9709
aVdumb
p9710
aVpvd
p9711
aVdeclined
p9712
aVyouth
p9713
aVlearnt
p9714
aVnailed
p9715
aVvodkatonics
p9716
aVapproproately
p9717
aVvarious
p9718
aVconsecutive
p9719
aVnumerous
p9720
aVhighhopes
p9721
aVsolo
p9722
aVkorea
p9723
aVrecently
p9724
aVcreating
p9725
aVawfulcustomerservice
p9726
aVua125
p9727
aVsold
p9728
aVsole
p9729
aVoutfit
p9730
aVua49
p9731
aVcompetent
p9732
aVsouthwestrally
p9733
aVcondo
p9734
aVmbas
p9735
aVafter2
p9736
aVbandie
p9737
aVorphanage
p9738
aVblazer
p9739
aVlicense
p9740
aVcontext
p9741
aVfilthyplane
p9742
aVrollers
p9743
aVarbitrarily
p9744
aVflies
p9745
aVflier
p9746
aVdistress
p9747
aVreasons
p9748
aVsweet
p9749
aVepicfail
p9750
aVimproper
p9751
aVweasel
p9752
aVvillage
p9753
aVslots
p9754
aVnatt
p9755
aVeyewitness
p9756
aVduh
p9757
aVstartling
p9758
aVpp
p9759
aVidontwanttocallback
p9760
aVpv
p9761
aVpt
p9762
aVpu
p9763
aVswa
p9764
aVdub
p9765
aVdue
p9766
aVstrategy
p9767
aVwhom
p9768
aVreduction
p9769
aVpa
p9770
aVpe
p9771
aVph
p9772
aVswu
p9773
aVwhoa
p9774
aVwoke
p9775
aVpm
p9776
aVsiting
p9777
aVflight
p9778
aVbuck
p9779
aVfirefighters
p9780
aVtransferring
p9781
aVcinci
p9782
aVua1641
p9783
aVrocking
p9784
aVsolate
p9785
aVplants
p9786
aVstolen
p9787
aVtht
p9788
aVsandiego
p9789
aVfrozen
p9790
aVmpls
p9791
aVbehavior
p9792
aVunitedsucks
p9793
aVtheres
p9794
aVguyys
p9795
aVdublin
p9796
aVrip
p9797
aVdisappointing
p9798
aVtalktoahuman
p9799
aVrim
p9800
aVrid
p9801
aVric
p9802
aVlengthy
p9803
aVshirt
p9804
aVretroactively
p9805
aVappleton
p9806
aVneverchange
p9807
aVares
p9808
aVadvise
p9809
aVdaughters
p9810
aVsliver
p9811
aVarrives
p9812
aVflgt
p9813
aVpainless
p9814
aVnegotiate
p9815
aVcement
p9816
aVholidays
p9817
aVbrooding
p9818
aVflown
p9819
aVmoving
p9820
aVcontractors
p9821
aVpatiencerunningout
p9822
aVknack
p9823
aVbiztravel
p9824
aVbuybacks
p9825
aVlower
p9826
aVtotalfail
p9827
aVdepending
p9828
aVbouncer
p9829
aVedgy
p9830
aVcheer
p9831
aVedge
p9832
aVbounced
p9833
aVstating
p9834
aVbreastfeeding
p9835
aVgrievance
p9836
aVabilities
p9837
aVquestions
p9838
aVturbulence
p9839
aVretired
p9840
aVcabaret
p9841
aVprince
p9842
aVprofitable
p9843
aVtables
p9844
aVloading
p9845
aVtablet
p9846
aVworkers
p9847
aVanyone40min
p9848
aVexclusively
p9849
aVtweak
p9850
aVviracopos
p9851
aVpainfully
p9852
aVreinstate
p9853
aVfinder
p9854
aVbuild
p9855
aVcomplaint
p9856
aVvendor
p9857
aVcomplains
p9858
aVsittin
p9859
aVsounding
p9860
aVgetmartyhome
p9861
aVjacksonville
p9862
aVflt2417
p9863
aVplundering
p9864
aVmodifications
p9865
aVsizer
p9866
aVcostumerservice
p9867
aVavatars
p9868
aVignore
p9869
aVcollect
p9870
aVpreboard
p9871
aVdenverairport
p9872
aVessential
p9873
aVhinted
p9874
aVfucking
p9875
aVfuckinf
p9876
aVempl
p9877
aVaa157
p9878
aVtrumping
p9879
aVunderstood
p9880
aVlitter
p9881
aVfreeflight
p9882
aVvacate
p9883
aVdisallows
p9884
aVcanadians
p9885
aVsized
p9886
aVonelove
p9887
aVpros
p9888
aVmeds
p9889
aVprom
p9890
aVretrn
p9891
aVproblemsolvers
p9892
aVanni
p9893
aVinnovation
p9894
aVprof
p9895
aVannd
p9896
aVprob
p9897
aVanna
p9898
aVangelo
p9899
aVlose
p9900
aVrefused
p9901
aVzombie
p9902
aVconsolation
p9903
aVau1066
p9904
aVrefuses
p9905
aVrussell
p9906
aVstrtd
p9907
aVwrecking
p9908
aVcompleting
p9909
aVfiring
p9910
aVmobileboarding
p9911
aVbrooklyn
p9912
aVrange
p9913
aVcstmr
p9914
aVworstflight
p9915
aVcomplimentary
p9916
aVwanna
p9917
aVhappycustomer
p9918
aVcutoff
p9919
aVpref
p9920
aVgreenfield
p9921
aVunnoticed
p9922
aVmommy
p9923
aVdividendmiles
p9924
aVmomma
p9925
aVkailua
p9926
aVonbrd
p9927
aVextraordinary
p9928
aVsports
p9929
aVua6259
p9930
aVimpressed
p9931
aVrows
p9932
aVtwitterhug
p9933
aVkeepitclassy
p9934
aVlone
p9935
aVua1543
p9936
aVfast
p9937
aVbruh
p9938
aVsections
p9939
aVmountains
p9940
aValison
p9941
aVcriteria
p9942
aVunmonitored
p9943
aVbeen3hours
p9944
aVrepeatedly
p9945
aVdelta
p9946
aVlumpur
p9947
aVoutpost
p9948
aVraising
p9949
aVpenguin
p9950
aVsciencebehindtheexperience
p9951
aVn775jb
p9952
aVastounds
p9953
aVcaller
p9954
aVcapitalized
p9955
aVthroug
p9956
aVguyana
p9957
aVhighlight
p9958
aVcalled
p9959
aVsouthwestairlines
p9960
aVcrummyservice
p9961
aVassociated
p9962
aVshortcuts
p9963
aVmosiac
p9964
aVkathryn
p9965
aVwarning
p9966
aVbadbussiness
p9967
aVdisappoints
p9968
aVrainy
p9969
aVjln
p9970
aVgrr
p9971
aVgrp
p9972
aVpeace
p9973
aVnick
p9974
aVcramped
p9975
aVincome
p9976
aVebokeers
p9977
aVmcdonnell
p9978
aVgrk
p9979
aVnice
p9980
aVdale
p9981
aVf5r3zz
p9982
aVusers
p9983
aVsmitten
p9984
aVmissin
p9985
aVfend4urself
p9986
aVhelping
p9987
aVasus
p9988
aVgenerated
p9989
aVallowing
p9990
aVdishonoring
p9991
aVhappier
p9992
aVvice
p9993
aVua3710
p9994
aVgr8
p9995
aVimpatient
p9996
aVdeparts
p9997
aVweights
p9998
aVkarma
p9999
aVinclemental
p10000
aVbuffalo
p10001
aVdullessucks
p10002
aVmardi
p10003
aVissued
p10004
aVpoorplanning
p10005
aVsteve
p10006
aVworst2unitedflightsever
p10007
aVswa1004
p10008
aVwinds
p10009
aVadjustment
p10010
aVissues
p10011
aVuphold
p10012
aVshanghai
p10013
aVyouareonyourown
p10014
aVlanguages
p10015
aVpiela
p10016
aVstable
p10017
aVbreach
p10018
aVridiculousness
p10019
aVinclude
p10020
aVdramatically
p10021
aVrag
p10022
aVfwiw
p10023
aVbeatstheothers
p10024
aVrefsd
p10025
aVnoapology
p10026
aVspook
p10027
aVdrinking
p10028
aVrad
p10029
aVohboy
p10030
aVnotes
p10031
aVsmoothtransition
p10032
aVdeals
p10033
aVdealt
p10034
aVnoted
p10035
aVunitedsucksdick
p10036
aVclaudia
p10037
aVenuf
p10038
aVplows
p10039
aVswaculture
p10040
aVnoluv
p10041
aVcncld
p10042
aVbestairline
p10043
aVtraveling
p10044
aVreunion
p10045
aVheadlines
p10046
aVfolk
p10047
aVobey
p10048
aVcheckers
p10049
aVunavailable
p10050
aVbdl
p10051
aVmed
p10052
aVreaching
p10053
aVhardest
p10054
aVwaiting
p10055
aVcapital
p10056
aVpassengerbillofrights
p10057
aVsrvc
p10058
aVchose
p10059
aVdegree
p10060
aVsinuses
p10061
aVskyteam
p10062
aVdesired
p10063
aVexplore
p10064
aVferry
p10065
aVsexy
p10066
aVhkg
p10067
aVtriage
p10068
aVmetro
p10069
aVdistressed
p10070
aVlarger
p10071
aVshades
p10072
aVleaving
p10073
aVsuggests
p10074
aVsnobby
p10075
aVsheila
p10076
aVapx
p10077
aVapple
p10078
aVapp
p10079
aVapt
p10080
aVvolt
p10081
aVnantucket
p10082
aVapi
p10083
aVbusinesstravel
p10084
aVmotor
p10085
aVlodging
p10086
aVapply
p10087
aVredo
p10088
aVfed
p10089
aVhahahahaha
p10090
aVfeb
p10091
aVstream
p10092
aVusa
p10093
aViced
p10094
aVcnxn
p10095
aVookay
p10096
aVwinkwink
p10097
aVdecember
p10098
aVpushback
p10099
aVpeanutsonaplatter
p10100
aVsort
p10101
aVclever
p10102
aVthingsyoucantmakeup
p10103
aVmusician
p10104
aVimpress
p10105
aVbrochure
p10106
aVjetbluemess
p10107
aVwomen
p10108
aVhowisthatpossible
p10109
aVnapkins
p10110
aVaweful
p10111
aVproof
p10112
aVtap
p10113
aVpatron
p10114
aVraps
p10115
aVfligt
p10116
aVtad
p10117
aVjustsayin
p10118
aVtag
p10119
aVhilton
p10120
aVurged
p10121
aVtab
p10122
aVtan
p10123
aVsis
p10124
aVsir
p10125
aVunited
p10126
aVusair
p10127
aVmemorize
p10128
aVsit
p10129
aVjustdoit
p10130
aVjustifiable
p10131
aVdxb
p10132
aVbrian
p10133
aVswear
p10134
aVinstead
p10135
aVtoddler
p10136
aVpanic
p10137
aVsil
p10138
aVmassages
p10139
aVrestructured
p10140
aVattend
p10141
aVnoworstairline
p10142
aVhazard
p10143
aVdiscomfort
p10144
aVabuse
p10145
aVrcvd
p10146
aVdaycare
p10147
aVlight
p10148
aVfailover
p10149
aVinterrupted
p10150
aVscenarios
p10151
aVhonestly
p10152
aVcrawling
p10153
aVirregularity
p10154
aVh8
p10155
aVwhilst
p10156
aVlooks
p10157
aVepicfailunited
p10158
aVystrdy
p10159
aVbadges
p10160
aVsunkist
p10161
aVspotify
p10162
aVscreensand
p10163
aVassurances
p10164
aVoveur
p10165
aVnostalgic
p10166
aVpermanent
p10167
aVchoose
p10168
aVorange
p10169
aVcovered
p10170
aVholiday
p10171
aVpending
p10172
aVflex
p10173
aVcrash
p10174
aVtrappedhouston
p10175
aVpractice
p10176
aVversace
p10177
aVflew
p10178
aVnegligent
p10179
aVmaintenece
p10180
aVimpaired
p10181
aVrepublican
p10182
aVorthodoc
p10183
aVlandings
p10184
aVworlds
p10185
aVmeasly
p10186
aVedit
p10187
aVtisk
p10188
aVunitedvusa
p10189
aVunpredictable
p10190
aVtrap
p10191
aVsurat
p10192
aVhotline
p10193
aVbills
p10194
aVtray
p10195
aVoui
p10196
aVbestinclassocial
p10197
aVflightly
p10198
aVdoubled
p10199
aVstewardesses
p10200
aVwhacked
p10201
aVcategory
p10202
aVrespects
p10203
aVokee
p10204
aVacknowledgment
p10205
aVsentiment
p10206
aVfrontier
p10207
aVnevertakeno
p10208
aVubetter
p10209
aVchaos
p10210
aVherded
p10211
aVvcp
p10212
aVsyastem
p10213
aVimaginedragons
p10214
aVmpwnc2
p10215
aVdisclose
p10216
aVdictionary
p10217
aVplanner
p10218
aVpromptly
p10219
aVyork
p10220
aVsabre
p10221
aVstupidity
p10222
aVadditional
p10223
aVltr
p10224
aVinforms
p10225
aVconversation
p10226
aVpasting
p10227
aVhence
p10228
aVapproaching
p10229
aVphrased
p10230
aVplainly
p10231
aVblameshiftoverload
p10232
aVtravelfail
p10233
aVstraight
p10234
aVser
p10235
aVcentricity
p10236
aVovertime
p10237
aVunknown
p10238
aVgalley
p10239
aVpriority
p10240
aVshittydeal
p10241
aVrepping
p10242
aVwendell
p10243
aVshelf
p10244
aVreversed
p10245
aVslides
p10246
aVregards
p10247
aVnumerical
p10248
aVjuly
p10249
aVastounded
p10250
aVcommence
p10251
aVblind
p10252
aVoptout
p10253
aVogg
p10254
aVstupidly
p10255
aVfrontrunner
p10256
aVairportcardio
p10257
aValerted
p10258
aVquiche
p10259
aVlinked
p10260
aVua1568
p10261
aVreaches
p10262
aVafraid
p10263
aVangle
p10264
aVkristy
p10265
aVallergies
p10266
aVreeks
p10267
aVua1564
p10268
aVua1565
p10269
aVua1566
p10270
aVahold
p10271
aVasshole
p10272
aVtrivia
p10273
aVpretzels
p10274
aVcombat
p10275
aVcentre
p10276
aVwht
p10277
aVwhatgives
p10278
aVclass
p10279
aVspirits
p10280
aVterriblecommunication
p10281
aVdeny
p10282
aVrefreshing
p10283
aVneighboring
p10284
aVmishaps
p10285
aVlooked
p10286
aVokaay
p10287
aVguinea
p10288
aVensued
p10289
aVho
p10290
aVchances
p10291
aVamericandairlinessucks
p10292
aVapprox
p10293
aVpurely
p10294
aVplanning
p10295
aVchicken
p10296
aVfeat
p10297
aVpleased
p10298
aVind43728m
p10299
aVq3
p10300
aVq2
p10301
aVq4
p10302
aVcraziness
p10303
aVoperational
p10304
aVlemme
p10305
aVcombo
p10306
aVdreamliner
p10307
aVthousands
p10308
aVunansweredquestions
p10309
aVworkin
p10310
aVwatching
p10311
aVdope
p10312
aVheattrap
p10313
aVnegativedegrees
p10314
aVones
p10315
aVwords
p10316
aVsouthbendinwhere
p10317
aVburned
p10318
aVswindle
p10319
aVqs
p10320
aVchampagne
p10321
aVtemp
p10322
aVcolo
p10323
aVmarried
p10324
aVph6rps
p10325
aVfeelbetter
p10326
aVjetways
p10327
aVe2kvm4
p10328
aVrita
p10329
aVavoidable
p10330
aVua4904
p10331
aVview
p10332
aVeurope
p10333
aVrequirement
p10334
aVacquired
p10335
aVsavethoseseats
p10336
aVbaggagelost
p10337
aVsmisek
p10338
aVconfrontational
p10339
aVgmail
p10340
aVcloser
p10341
aVcloses
p10342
aVgettingbetter
p10343
aVcloset
p10344
aVsuperb
p10345
aVfavor
p10346
aVclosed
p10347
aVcopilot
p10348
aVgrumpykim
p10349
aVstories
p10350
aVfrustrated
p10351
aVthete
p10352
aVspeed
p10353
aVpants
p10354
aVjavascript
p10355
aVweighing
p10356
aVability
p10357
aVstlouis
p10358
aVjoy
p10359
aVbeverages
p10360
aVagencies
p10361
aVamex
p10362
aVjob
p10363
aVjoe
p10364
aVspoil
p10365
aVavon
p10366
aVswift
p10367
aVjon
p10368
aVcommands
p10369
aVitis
p10370
aVworstcustomerserviceever
p10371
aVfreedrinkcoupons
p10372
aVaa45
p10373
aVapril
p10374
aVatleast
p10375
aVsafely
p10376
aVb36a
p10377
aVgrounds
p10378
aVcxp
p10379
aVunclear
p10380
aVjetscrew
p10381
aVwall
p10382
aVnarrower
p10383
aVwalk
p10384
aVsubscribe
p10385
aVtable
p10386
aVincidentals
p10387
aVcxl
p10388
aVfromthefrontseat
p10389
aVdecent
p10390
aVresponds
p10391
aVnaples
p10392
aVbragging
p10393
aVmike
p10394
aVcraftbeer
p10395
aVinbound
p10396
aVcrappy
p10397
aVhmm
p10398
aVensuring
p10399
aVfjbfsc
p10400
aVandthewinneris
p10401
aVabandoned
p10402
aVunlike
p10403
aVfilmjobnoequipment
p10404
aVirate
p10405
aVchoices
p10406
aVstunning
p10407
aVunaccommodating
p10408
aVantigua
p10409
aVvicky
p10410
aVringing
p10411
aVdroppeditoffyet
p10412
aVsests
p10413
aVavp
p10414
aVthur
p10415
aVencouragement
p10416
aVhappytweet
p10417
aVsnuck
p10418
aVua6194
p10419
aVerie
p10420
aVfkn
p10421
aVprivileges
p10422
aVmaddening
p10423
aVcross
p10424
aVthemenofbusiness
p10425
aVrepainted
p10426
aVlargest
p10427
aVinch
p10428
aVcontactless
p10429
aVgnight
p10430
aVdifficult
p10431
aVspirited
p10432
aVelbows
p10433
aVmyvxexperience
p10434
aVpromo
p10435
aVpremiere
p10436
aVdefinately
p10437
aVwd40
p10438
aVstudent
p10439
aVvacationing
p10440
aVnoc
p10441
aVpremiers
p10442
aVcontest
p10443
aVua304
p10444
aVenglish
p10445
aVaa2450
p10446
aVget2
p10447
aVokcdirects
p10448
aVcurtesy
p10449
aVlightbulb
p10450
aVithelpsabit
p10451
aVroutinely
p10452
aVcried
p10453
aVheavily
p10454
aVobtain
p10455
aVbatteries
p10456
aVrocked
p10457
aVtcf
p10458
aVhappiness
p10459
aVtoilets
p10460
aVrapid
p10461
aVbaggagedrama
p10462
aVjetbluebruins
p10463
aVsky
p10464
aVcapabilities
p10465
aVhall
p10466
aVstingiest
p10467
aVconcourse
p10468
aVexpedite
p10469
aVusage
p10470
aVsmart
p10471
aVski
p10472
aVunprecedented
p10473
aVidentical
p10474
aVcpap
p10475
aVblatimore
p10476
aVpress
p10477
aVredesign
p10478
aVhollow
p10479
aViberia
p10480
aVhelpful
p10481
aVamericanairlinesfail
p10482
aVmiami
p10483
aVloser
p10484
aVloses
p10485
aVjames
p10486
aVexceed
p10487
aVnigga
p10488
aVapeared
p10489
aVsmoothly
p10490
aVscared
p10491
aVupgrades
p10492
aVsearching
p10493
aVprchase
p10494
aVshanese
p10495
aVpossibilities
p10496
aVneverflyaagain
p10497
aVtryng
p10498
aVlead
p10499
aVrealistic
p10500
aVleak
p10501
aVleah
p10502
aVmines
p10503
aVfailphone
p10504
aVpatiently
p10505
aVleader
p10506
aVmurdock
p10507
aVlocate
p10508
aVripped
p10509
aVintuitlife
p10510
aVconveyer
p10511
aVhandedly
p10512
aVagcommunity
p10513
aVsandwiches
p10514
aVmite
p10515
aVpaste
p10516
aVmellie
p10517
aVthrone
p10518
aVrare
p10519
aVcarried
p10520
aVextension
p10521
aVgetting
p10522
aVrecvd
p10523
aVspilled
p10524
aVasha
p10525
aVshipping
p10526
aVperks
p10527
aVcarrier
p10528
aVsweat
p10529
aVsaddens
p10530
aVflight5182
p10531
aVcreate
p10532
aVgreensboro
p10533
aVown
p10534
aVowe
p10535
aVtravelers
p10536
aVwarrants
p10537
aVclifton
p10538
aVloner
p10539
aVweather
p10540
aVpromise
p10541
aVbrush
p10542
aVregistration
p10543
aVbadbadbad
p10544
aVaa291
p10545
aVprompted
p10546
aVuncontrollably
p10547
aVvan
p10548
aVtransfer
p10549
aVfrustrations
p10550
aVappt
p10551
aVapps
p10552
aVkidding
p10553
aVcontinental
p10554
aVintention
p10555
aVdynamite
p10556
aVuncontrollable
p10557
aVcallings
p10558
aVfunds
p10559
aVvolume
p10560
aVcontradictory
p10561
aVautomated
p10562
aVnassau
p10563
aVgoose
p10564
aVtactics
p10565
aVaa3186
p10566
aVwating
p10567
aVretook
p10568
aVmeeting
p10569
aVlve
p10570
aVrecord
p10571
aVbelow
p10572
aVcake
p10573
aVfwhei6
p10574
aVcmon
p10575
aVhorrific
p10576
aVfidencio
p10577
aVinadequate
p10578
aVcompanionpasses
p10579
aVdistributor
p10580
aVgoodness
p10581
aVhomeandreadyfornexttrip
p10582
aVanythin
p10583
aVnaming
p10584
aVavoided
p10585
aVincredible
p10586
aVitravelalot
p10587
aVboot
p10588
aVbook
p10589
aVbool
p10590
aVboom
p10591
aVsick
p10592
aVrehman
p10593
aVincredibly
p10594
aVcontacting
p10595
aVwannaa
p10596
aVjune
p10597
aVpumps
p10598
aVkinda
p10599
aVgap
p10600
aVincurred
p10601
aVaa3181
p10602
aVtricities
p10603
aVsass
p10604
aVjewel
p10605
aVintentionally
p10606
aVgoodday
p10607
aVemerg
p10608
aVvolumes
p10609
aVtonnes
p10610
aVft1892
p10611
a.